
D8M_Camera_Test.elf:     file format elf32-littlenios2
D8M_Camera_Test.elf
architecture: nios2:r1, flags 0x00000112:
EXEC_P, HAS_SYMS, D_PAGED
start address 0x00020244

Program Header:
    LOAD off    0x00001000 vaddr 0x00020000 paddr 0x00020000 align 2**12
         filesz 0x00000020 memsz 0x00000020 flags r-x
    LOAD off    0x00001020 vaddr 0x00020020 paddr 0x00020020 align 2**12
         filesz 0x00015744 memsz 0x00015744 flags r-x
    LOAD off    0x00016764 vaddr 0x00035764 paddr 0x00037b14 align 2**12
         filesz 0x000023b0 memsz 0x000023b0 flags rw-
    LOAD off    0x00018ec4 vaddr 0x00039ec4 paddr 0x00039ec4 align 2**12
         filesz 0x00000000 memsz 0x00000194 flags rw-

Sections:
Idx Name          Size      VMA       LMA       File off  Algn
  0 .entry        00000020  00020000  00020000  00001000  2**5
                  CONTENTS, ALLOC, LOAD, READONLY, CODE
  1 .exceptions   00000224  00020020  00020020  00001020  2**2
                  CONTENTS, ALLOC, LOAD, READONLY, CODE
  2 .text         00014390  00020244  00020244  00001244  2**2
                  CONTENTS, ALLOC, LOAD, READONLY, CODE
  3 .rodata       00001190  000345d4  000345d4  000155d4  2**2
                  CONTENTS, ALLOC, LOAD, READONLY, DATA
  4 .rwdata       000023b0  00035764  00037b14  00016764  2**2
                  CONTENTS, ALLOC, LOAD, DATA, SMALL_DATA
  5 .bss          00000194  00039ec4  00039ec4  00018ec4  2**2
                  ALLOC, SMALL_DATA
  6 .onchip_memory2_0 00000000  0003a058  0003a058  00018b14  2**0
                  CONTENTS
  7 .comment      00000046  00000000  00000000  00018b14  2**0
                  CONTENTS, READONLY
  8 .debug_aranges 00001230  00000000  00000000  00018b60  2**3
                  CONTENTS, READONLY, DEBUGGING
  9 .debug_info   0002e88f  00000000  00000000  00019d90  2**0
                  CONTENTS, READONLY, DEBUGGING
 10 .debug_abbrev 0000bb95  00000000  00000000  0004861f  2**0
                  CONTENTS, READONLY, DEBUGGING
 11 .debug_line   0000e5f9  00000000  00000000  000541b4  2**0
                  CONTENTS, READONLY, DEBUGGING
 12 .debug_frame  00002da0  00000000  00000000  000627b0  2**2
                  CONTENTS, READONLY, DEBUGGING
 13 .debug_str    00004585  00000000  00000000  00065550  2**0
                  CONTENTS, READONLY, DEBUGGING
 14 .debug_loc    00018b52  00000000  00000000  00069ad5  2**0
                  CONTENTS, READONLY, DEBUGGING
 15 .debug_alt_sim_info 00000060  00000000  00000000  00082628  2**2
                  CONTENTS, READONLY, DEBUGGING
 16 .debug_ranges 00001ac0  00000000  00000000  00082688  2**3
                  CONTENTS, READONLY, DEBUGGING
 17 .thread_model 00000003  00000000  00000000  00088252  2**0
                  CONTENTS, READONLY
 18 .cpu          0000000a  00000000  00000000  00088255  2**0
                  CONTENTS, READONLY
 19 .qsys         00000001  00000000  00000000  0008825f  2**0
                  CONTENTS, READONLY
 20 .simulation_enabled 00000001  00000000  00000000  00088260  2**0
                  CONTENTS, READONLY
 21 .sysid_hash   00000004  00000000  00000000  00088261  2**0
                  CONTENTS, READONLY
 22 .sysid_base   00000004  00000000  00000000  00088265  2**0
                  CONTENTS, READONLY
 23 .sysid_time   00000004  00000000  00000000  00088269  2**0
                  CONTENTS, READONLY
 24 .stderr_dev   00000009  00000000  00000000  0008826d  2**0
                  CONTENTS, READONLY
 25 .stdin_dev    00000009  00000000  00000000  00088276  2**0
                  CONTENTS, READONLY
 26 .stdout_dev   00000009  00000000  00000000  0008827f  2**0
                  CONTENTS, READONLY
 27 .sopc_system_name 00000004  00000000  00000000  00088288  2**0
                  CONTENTS, READONLY
 28 .quartus_project_dir 0000003e  00000000  00000000  0008828c  2**0
                  CONTENTS, READONLY
 29 .jdi          00004f12  00000000  00000000  000882ca  2**0
                  CONTENTS, READONLY
 30 .sopcinfo     000a0505  00000000  00000000  0008d1dc  2**0
                  CONTENTS, READONLY
SYMBOL TABLE:
00020000 l    d  .entry	00000000 .entry
00020020 l    d  .exceptions	00000000 .exceptions
00020244 l    d  .text	00000000 .text
000345d4 l    d  .rodata	00000000 .rodata
00035764 l    d  .rwdata	00000000 .rwdata
00039ec4 l    d  .bss	00000000 .bss
0003a058 l    d  .onchip_memory2_0	00000000 .onchip_memory2_0
00000000 l    d  .comment	00000000 .comment
00000000 l    d  .debug_aranges	00000000 .debug_aranges
00000000 l    d  .debug_info	00000000 .debug_info
00000000 l    d  .debug_abbrev	00000000 .debug_abbrev
00000000 l    d  .debug_line	00000000 .debug_line
00000000 l    d  .debug_frame	00000000 .debug_frame
00000000 l    d  .debug_str	00000000 .debug_str
00000000 l    d  .debug_loc	00000000 .debug_loc
00000000 l    d  .debug_alt_sim_info	00000000 .debug_alt_sim_info
00000000 l    d  .debug_ranges	00000000 .debug_ranges
00000000 l    df *ABS*	00000000 ../D8M_Camera_Test_bsp//obj/HAL/src/crt0.o
0002028c l       .text	00000000 alt_after_alt_main
00000000 l    df *ABS*	00000000 alt_irq_handler.c
00000000 l    df *ABS*	00000000 alt_instruction_exception_entry.c
00000000 l    df *ABS*	00000000 I2C_core.c
00000000 l    df *ABS*	00000000 auto_focus.c
00000000 l    df *ABS*	00000000 main.c
00000000 l    df *ABS*	00000000 mipi_bridge_config.c
00035764 l     O .rwdata	00000034 MipiBridgeReg
00000000 l    df *ABS*	00000000 mipi_camera_config.c
00035798 l     O .rwdata	00000774 MipiCameraReg
00000000 l    df *ABS*	00000000 queue.c
00000000 l    df *ABS*	00000000 lib2-divmod.c
00000000 l    df *ABS*	00000000 fopen.c
00000000 l    df *ABS*	00000000 fprintf.c
00000000 l    df *ABS*	00000000 fseek.c
00000000 l    df *ABS*	00000000 fseeko.c
00000000 l    df *ABS*	00000000 fstatr.c
00000000 l    df *ABS*	00000000 fwrite.c
00000000 l    df *ABS*	00000000 getc.c
00000000 l    df *ABS*	00000000 impure.c
00035f0c l     O .rwdata	00000424 impure_data
00000000 l    df *ABS*	00000000 int_errno.c
00000000 l    df *ABS*	00000000 makebuf.c
00000000 l    df *ABS*	00000000 malloc.c
00000000 l    df *ABS*	00000000 mallocr.c
00000000 l    df *ABS*	00000000 memset.c
00000000 l    df *ABS*	00000000 openr.c
00000000 l    df *ABS*	00000000 printf.c
00000000 l    df *ABS*	00000000 putchar.c
00000000 l    df *ABS*	00000000 puts.c
00000000 l    df *ABS*	00000000 refill.c
00025170 l     F .text	0000001c lflush
00000000 l    df *ABS*	00000000 rget.c
00000000 l    df *ABS*	00000000 sbrkr.c
00000000 l    df *ABS*	00000000 stdio.c
00000000 l    df *ABS*	00000000 strlen.c
00000000 l    df *ABS*	00000000 vfprintf.c
000354aa l     O .rodata	00000010 zeroes.4404
00027824 l     F .text	000000bc __sbprintf
000354ba l     O .rodata	00000010 blanks.4403
00000000 l    df *ABS*	00000000 writer.c
00000000 l    df *ABS*	00000000 wsetup.c
00000000 l    df *ABS*	00000000 closer.c
00000000 l    df *ABS*	00000000 dtoa.c
00027ae8 l     F .text	00000200 quorem
00000000 l    df *ABS*	00000000 fflush.c
00000000 l    df *ABS*	00000000 findfp.c
00029618 l     F .text	00000008 __fp_unlock
0002962c l     F .text	0000019c __sinit.part.1
000297c8 l     F .text	00000008 __fp_lock
00000000 l    df *ABS*	00000000 flags.c
00000000 l    df *ABS*	00000000 mallocr.c
00000000 l    df *ABS*	00000000 fvwrite.c
00000000 l    df *ABS*	00000000 fwalk.c
00000000 l    df *ABS*	00000000 isattyr.c
00000000 l    df *ABS*	00000000 locale.c
00036758 l     O .rwdata	00000020 lc_ctype_charset
00036738 l     O .rwdata	00000020 lc_message_charset
00036778 l     O .rwdata	00000038 lconv
00000000 l    df *ABS*	00000000 lseekr.c
00000000 l    df *ABS*	00000000 memchr.c
00000000 l    df *ABS*	00000000 memcpy.c
00000000 l    df *ABS*	00000000 memmove.c
00000000 l    df *ABS*	00000000 mprec.c
000354e8 l     O .rodata	0000000c p05.2768
00000000 l    df *ABS*	00000000 putc.c
00000000 l    df *ABS*	00000000 readr.c
00000000 l    df *ABS*	00000000 mallocr.c
00000000 l    df *ABS*	00000000 s_fpclassify.c
00000000 l    df *ABS*	00000000 strcmp.c
00000000 l    df *ABS*	00000000 vfprintf.c
0002c26c l     F .text	000000fc __sprint_r.part.0
0003561c l     O .rodata	00000010 blanks.4348
0003560c l     O .rodata	00000010 zeroes.4349
0002d7f8 l     F .text	000000bc __sbprintf
00000000 l    df *ABS*	00000000 wbuf.c
00000000 l    df *ABS*	00000000 mallocr.c
00000000 l    df *ABS*	00000000 fclose.c
00000000 l    df *ABS*	00000000 fputwc.c
00000000 l    df *ABS*	00000000 wcrtomb.c
00000000 l    df *ABS*	00000000 wctomb_r.c
00000000 l    df *ABS*	00000000 libgcc2.c
00000000 l    df *ABS*	00000000 libgcc2.c
00000000 l    df *ABS*	00000000 adddf3.c
00000000 l    df *ABS*	00000000 divdf3.c
00000000 l    df *ABS*	00000000 eqdf2.c
00000000 l    df *ABS*	00000000 gedf2.c
00000000 l    df *ABS*	00000000 ledf2.c
00000000 l    df *ABS*	00000000 muldf3.c
00000000 l    df *ABS*	00000000 subdf3.c
00000000 l    df *ABS*	00000000 fixdfsi.c
00000000 l    df *ABS*	00000000 floatsidf.c
00000000 l    df *ABS*	00000000 floatunsidf.c
00000000 l    df *ABS*	00000000 libgcc2.c
00000000 l    df *ABS*	00000000 libgcc2.c
00000000 l    df *ABS*	00000000 alt_close.c
000310dc l     F .text	00000050 alt_get_errno
00000000 l    df *ABS*	00000000 alt_dev.c
000311fc l     F .text	0000002c alt_dev_null_write
00000000 l    df *ABS*	00000000 alt_errno.c
00000000 l    df *ABS*	00000000 alt_fcntl.c
00031228 l     F .text	00000050 alt_get_errno
00000000 l    df *ABS*	00000000 alt_fstat.c
00031398 l     F .text	00000050 alt_get_errno
00000000 l    df *ABS*	00000000 alt_isatty.c
00031498 l     F .text	00000050 alt_get_errno
00000000 l    df *ABS*	00000000 alt_load.c
0003158c l     F .text	00000068 alt_load_section
00000000 l    df *ABS*	00000000 alt_lseek.c
00031678 l     F .text	00000050 alt_get_errno
00000000 l    df *ABS*	00000000 alt_main.c
00000000 l    df *ABS*	00000000 alt_malloc_lock.c
00000000 l    df *ABS*	00000000 alt_open.c
00031860 l     F .text	00000050 alt_get_errno
000318b0 l     F .text	000000cc alt_file_locked
00000000 l    df *ABS*	00000000 alt_read.c
00031ad4 l     F .text	00000050 alt_get_errno
00000000 l    df *ABS*	00000000 alt_release_fd.c
00000000 l    df *ABS*	00000000 alt_sbrk.c
00037b04 l     O .rwdata	00000004 heap_end
00000000 l    df *ABS*	00000000 alt_tick.c
00000000 l    df *ABS*	00000000 alt_usleep.c
00000000 l    df *ABS*	00000000 alt_write.c
00031f08 l     F .text	00000050 alt_get_errno
00000000 l    df *ABS*	00000000 alt_sys_init.c
00032050 l     F .text	00000038 alt_dev_reg
00036958 l     O .rwdata	00001060 jtag_uart
000379b8 l     O .rwdata	000000c4 uart
00000000 l    df *ABS*	00000000 altera_avalon_jtag_uart_fd.c
00000000 l    df *ABS*	00000000 altera_avalon_jtag_uart_init.c
00032370 l     F .text	0000020c altera_avalon_jtag_uart_irq
0003257c l     F .text	000000a8 altera_avalon_jtag_uart_timeout
00000000 l    df *ABS*	00000000 altera_avalon_jtag_uart_ioctl.c
00000000 l    df *ABS*	00000000 altera_avalon_jtag_uart_read.c
00000000 l    df *ABS*	00000000 altera_avalon_jtag_uart_write.c
00000000 l    df *ABS*	00000000 altera_avalon_timer_sc.c
00032bbc l     F .text	00000078 alt_avalon_timer_sc_irq
00000000 l    df *ABS*	00000000 altera_avalon_uart_fd.c
00000000 l    df *ABS*	00000000 altera_avalon_uart_init.c
00032e7c l     F .text	0000009c altera_avalon_uart_irq
00032f18 l     F .text	000000e4 altera_avalon_uart_rxirq
00032ffc l     F .text	00000148 altera_avalon_uart_txirq
00000000 l    df *ABS*	00000000 altera_avalon_uart_read.c
00033198 l     F .text	00000050 alt_get_errno
00000000 l    df *ABS*	00000000 altera_avalon_uart_write.c
000333c4 l     F .text	00000050 alt_get_errno
00000000 l    df *ABS*	00000000 alt_alarm_start.c
00000000 l    df *ABS*	00000000 alt_busy_sleep.c
00000000 l    df *ABS*	00000000 alt_dcache_flush_all.c
00000000 l    df *ABS*	00000000 alt_dev_llist_insert.c
000338a0 l     F .text	00000050 alt_get_errno
00000000 l    df *ABS*	00000000 alt_do_ctors.c
00000000 l    df *ABS*	00000000 alt_do_dtors.c
00000000 l    df *ABS*	00000000 alt_find_dev.c
00000000 l    df *ABS*	00000000 alt_find_file.c
00000000 l    df *ABS*	00000000 alt_get_fd.c
00000000 l    df *ABS*	00000000 alt_icache_flush_all.c
00000000 l    df *ABS*	00000000 alt_iic.c
00000000 l    df *ABS*	00000000 alt_iic_isr_register.c
00000000 l    df *ABS*	00000000 alt_io_redirect.c
00033fb0 l     F .text	000000c4 alt_open_fd
00000000 l    df *ABS*	00000000 alt_irq_vars.c
00000000 l    df *ABS*	00000000 altera_nios2_gen2_irq.c
00000000 l    df *ABS*	00000000 alt_icache_flush.c
00000000 l    df *ABS*	00000000 atexit.c
00000000 l    df *ABS*	00000000 exit.c
00000000 l    df *ABS*	00000000 memcmp.c
00000000 l    df *ABS*	00000000 __atexit.c
00000000 l    df *ABS*	00000000 __call_atexit.c
00000000 l    df *ABS*	00000000 alt_exit.c
00039f2c g     O .bss	00000004 alt_instruction_exception_handler
00025084 g     F .text	00000018 putchar
0002b878 g     F .text	00000074 _mprec_log10
0002b964 g     F .text	0000008c __any_on
0002a4dc g     F .text	00000054 _isatty_r
000354f4 g     O .rodata	00000028 __mprec_tinytens
0003179c g     F .text	0000007c alt_main
0002509c g     F .text	000000c0 _puts_r
00039f58 g     O .bss	00000100 alt_irq
0002a60c g     F .text	00000060 _lseek_r
00021344 g     F .text	000000b0 Focus_Released
000205e4 g     F .text	00000060 ACK_check
00039eec g     O .bss	00000004 pink_vl
00037b14 g       *ABS*	00000000 __flash_rwdata_start
00020558 g     F .text	0000008c ACK_single_check
000299b8 g     F .text	000000ac __sflags
0002fc08 g     F .text	00000088 .hidden __eqdf2
00021164 g     F .text	000001e0 Focus_Window
0002302c g     F .text	0000006c OV8865_write_AF
0003a058 g       *ABS*	00000000 __alt_heap_start
000238fc g     F .text	00000064 QUEUE_IsFull
00037a88 g     O .rwdata	00000004 blue_hl
00039ec4 g     O .bss	00000004 blue_sl
00039ec8 g     O .bss	00000004 blue_vl
00025040 g     F .text	0000003c printf
0002dddc g     F .text	0000009c _wcrtomb_r
00025514 g     F .text	0000005c __sseek
00029968 g     F .text	00000010 __sinit
0002d8b4 g     F .text	00000140 __swbuf_r
0002a530 g     F .text	0000007c _setlocale_r
000297d0 g     F .text	00000068 __sfmoreglue
0003183c g     F .text	00000024 __malloc_unlock
00037abc g     O .rwdata	00000004 yellow_su
00037a90 g     O .rwdata	00000004 blue_su
0002a898 g     F .text	0000015c memmove
00020644 g     F .text	00000200 OC_I2C_Write
00029950 g     F .text	00000018 _cleanup
0002a9f4 g     F .text	000000a8 _Balloc
0002103c g     F .text	00000128 Focus_Init
0002fc90 g     F .text	000000dc .hidden __gtdf2
000340f0 g     F .text	00000024 altera_nios2_gen2_irq_init
00020000 g     F .entry	0000001c __reset
00020020 g       *ABS*	00000000 __flash_exceptions_start
00024244 g     F .text	0000005c _fstat_r
00037a84 g     O .rwdata	00000001 focus_scal
00039ef8 g     O .bss	00000004 errno
000253d4 g     F .text	00000014 __srget
00025490 g     F .text	00000008 __seofread
00039f18 g     O .bss	00000004 alt_argv
0003fa7c g       *ABS*	00000000 _gp
00031ed8 g     F .text	00000030 usleep
00037ad0 g     O .rwdata	00000004 pink_vu
00039ed8 g     O .bss	00000004 red_sl
000367d8 g     O .rwdata	00000180 alt_fd_list
000243a0 g     F .text	00000070 _getc_r
00024410 g     F .text	00000088 getc
0002507c g     F .text	00000008 _putchar_r
00033a54 g     F .text	00000090 alt_find_dev
0002a750 g     F .text	00000148 memcpy
00020398 g     F .text	0000013c oc_i2c_init_ex
00029620 g     F .text	0000000c _cleanup_r
00030ef4 g     F .text	000000dc .hidden __floatsidf
00034074 g     F .text	0000007c alt_io_redirect
0002fd6c g     F .text	000000f4 .hidden __ltdf2
000345d4 g       *ABS*	00000000 __DTOR_END__
0002515c g     F .text	00000014 puts
000341a4 g     F .text	0000009c alt_exception_cause_generated_bad_addr
00039edc g     O .bss	00000004 red_vl
0002c11c g     F .text	00000074 __fpclassifyd
0002b7d4 g     F .text	000000a4 __ratio
0002d7dc g     F .text	0000001c __vfiprintf_internal
000238bc g     F .text	00000040 QUEUE_IsEmpty
0003277c g     F .text	0000021c altera_avalon_jtag_uart_read
00024654 g     F .text	00000014 malloc
00025010 g     F .text	00000030 _printf_r
00020000 g       *ABS*	00000000 __alt_mem_onchip_memory2_0
00023bb0 g     F .text	00000064 .hidden __udivsi3
000314e8 g     F .text	000000a4 isatty
00035544 g     O .rodata	000000c8 __mprec_tens
0002a5ac g     F .text	0000000c __locale_charset
00039ed4 g     O .bss	00000004 red_hl
00034114 g     F .text	00000090 alt_icache_flush
00039f04 g     O .bss	00000004 __malloc_top_pad
00023a84 g     F .text	00000034 QUEUE_Empty
00023118 g     F .text	000000d0 OV8865_FOCUS_Move_to
00037ae4 g     O .rwdata	00000004 __mb_cur_max
0002a5dc g     F .text	0000000c _localeconv_r
0002ae00 g     F .text	0000003c __i2b
00029e98 g     F .text	000004bc __sfvwrite_r
000239f4 g     F .text	00000090 QUEUE_Pop
00039ef0 g     O .bss	00000004 filtered
000253e8 g     F .text	00000054 _sbrk_r
00037aa0 g     O .rwdata	00000004 green_su
0002bb58 g     F .text	00000060 _read_r
00037a82 g     O .rwdata	00000002 focus_height
00037afc g     O .rwdata	00000004 alt_max_fd
0002dad0 g     F .text	000000f0 _fclose_r
00022fc0 g     F .text	0000006c OV8865_write_cmos_sensor_8
000295e8 g     F .text	00000030 fflush
00039f00 g     O .bss	00000004 __malloc_max_sbrked_mem
0002ea74 g     F .text	000008ac .hidden __adddf3
0002b57c g     F .text	0000010c __b2d
00037aa4 g     O .rwdata	00000004 green_vu
0002e53c g     F .text	00000538 .hidden __umoddi3
000316c8 g     F .text	000000d4 lseek
00037ad4 g     O .rwdata	00000004 _global_impure_ptr
0002bbb8 g     F .text	00000564 _realloc_r
0003a058 g       *ABS*	00000000 __bss_end
00033ec0 g     F .text	000000f0 alt_iic_isr_register
00031dd0 g     F .text	00000108 alt_tick
0002dfc4 g     F .text	00000578 .hidden __udivdi3
0002dd38 g     F .text	00000024 _fputwc_r
0003551c g     O .rodata	00000028 __mprec_bigtens
0002abe4 g     F .text	00000104 __s2b
00030fd0 g     F .text	000000a8 .hidden __floatunsidf
00037a7e g     O .rwdata	00000002 video_h
0002b2bc g     F .text	00000060 __mcmp
00032dd0 g     F .text	000000ac altera_avalon_uart_init
00029988 g     F .text	00000018 __fp_lock_all
00037acc g     O .rwdata	00000004 pink_su
00033e74 g     F .text	0000004c alt_ic_irq_enabled
000213f4 g     F .text	000000b8 mipi_clear_error
00020bac g     F .text	00000210 OC_I2CL_Write
00031d34 g     F .text	0000009c alt_alarm_stop
00039f28 g     O .bss	00000004 alt_irq_active
00023de4 g     F .text	00000444 _fseeko_r
00020844 g     F .text	00000064 ACK_judge_for_read
000200fc g     F .exceptions	000000d4 alt_irq_handler
000232c8 g     F .text	000000cc OV8865SetGain
000367b0 g     O .rwdata	00000028 alt_dev_null
00020290 g     F .text	00000058 Write32_Data
00033858 g     F .text	00000048 alt_dcache_flush_all
0002ace8 g     F .text	00000068 __hi0bits
00030e74 g     F .text	00000080 .hidden __fixdfsi
00037a85 g     O .rwdata	00000001 focus_scal_f
00037b14 g       *ABS*	00000000 __ram_rwdata_end
00037af4 g     O .rwdata	00000008 alt_dev_list
00031f58 g     F .text	000000f8 write
0002b9f0 g     F .text	000000a0 _putc_r
00039ed0 g     O .bss	00000004 green_vl
00035764 g       *ABS*	00000000 __ram_rodata_end
000313e8 g     F .text	000000b0 fstat
00023da0 g     F .text	00000024 fprintf
0002fd6c g     F .text	000000f4 .hidden __ledf2
0002b034 g     F .text	00000140 __pow5mult
0002c380 g     F .text	0000145c ___vfiprintf_internal_r
00039f10 g     O .bss	00000004 __nlocale_changed
00023c14 g     F .text	00000058 .hidden __umodsi3
00037a8c g     O .rwdata	00000004 blue_hu
00021544 g     F .text	00000178 mipi_show_error_info_more
0003a058 g       *ABS*	00000000 end
00024228 g     F .text	0000001c fseeko
00039ef4 g     O .bss	00000004 mode
00033414 g     F .text	000001ac altera_avalon_uart_write
00023dc8 g     F .text	0000001c fseek
000322a8 g     F .text	000000c8 altera_avalon_jtag_uart_init
000201d0 g     F .exceptions	00000074 alt_instruction_exception_entry
000345d4 g       *ABS*	00000000 __CTOR_LIST__
00040000 g       *ABS*	00000000 __alt_stack_pointer
00032c34 g     F .text	0000008c alt_avalon_timer_sc_init
00032d20 g     F .text	00000060 altera_avalon_uart_write_fd
00031078 g     F .text	00000064 .hidden __clzsi2
00037a9c g     O .rwdata	00000004 green_hu
00032d80 g     F .text	00000050 altera_avalon_uart_close_fd
00032998 g     F .text	00000224 altera_avalon_jtag_uart_write
00029978 g     F .text	00000004 __sfp_lock_acquire
0002a66c g     F .text	000000e4 memchr
00025610 g     F .text	000021f8 ___vfprintf_internal_r
00037ac0 g     O .rwdata	00000004 yellow_vu
00029b88 g     F .text	00000310 _free_r
0002a5b8 g     F .text	00000010 __locale_mb_cur_max
00034420 g     F .text	00000180 __call_exitprocs
00025360 g     F .text	00000074 __srget_r
00037a94 g     O .rwdata	00000004 blue_vu
00039f0c g     O .bss	00000004 __mlocale_changed
00037adc g     O .rwdata	00000004 __malloc_sbrk_base
00020244 g     F .text	0000004c _start
00039f20 g     O .bss	00000004 _alt_tick_rate
00037aac g     O .rwdata	00000004 red_su
0002b174 g     F .text	00000148 __lshift
00023960 g     F .text	00000094 QUEUE_Push
00039f24 g     O .bss	00000004 _alt_nticks
00031b24 g     F .text	000000fc read
000320c0 g     F .text	00000084 alt_sys_init
00024fb0 g     F .text	00000060 _open_r
00034308 g     F .text	00000118 __register_exitproc
00022f5c g     F .text	00000064 OV8865_read_cmos_sensor_8
0002ae3c g     F .text	000001f8 __multiply
00032624 g     F .text	00000068 altera_avalon_jtag_uart_close
00022d48 g     F .text	0000006c MipiBridgeRegWrite
00035764 g       *ABS*	00000000 __ram_rwdata_start
000345d4 g       *ABS*	00000000 __ram_rodata_start
00037aa8 g     O .rwdata	00000004 red_hu
00039f30 g     O .bss	00000028 __malloc_current_mallinfo
0002b688 g     F .text	0000014c __d2b
00032144 g     F .text	00000060 altera_avalon_jtag_uart_read_fd
00033bf8 g     F .text	000000b4 alt_get_fd
00033700 g     F .text	00000158 alt_busy_sleep
00027a94 g     F .text	00000054 _close_r
0003428c g     F .text	0000007c memcmp
00032204 g     F .text	00000050 altera_avalon_jtag_uart_close_fd
0003a058 g       *ABS*	00000000 __alt_stack_base
00032254 g     F .text	00000054 altera_avalon_jtag_uart_ioctl_fd
000242a0 g     F .text	000000cc _fwrite_r
00027940 g     F .text	00000154 __swsetup_r
00020340 g     F .text	00000058 oc_i2c_init
0002f320 g     F .text	000008e8 .hidden __divdf3
00029838 g     F .text	00000118 __sfp
0002b8ec g     F .text	00000078 __copybits
00036330 g     O .rwdata	00000408 __malloc_av_
00029984 g     F .text	00000004 __sinit_lock_release
0002fe60 g     F .text	00000718 .hidden __muldf3
0002543c g     F .text	00000054 __sread
00033ae4 g     F .text	00000114 alt_find_file
000338f0 g     F .text	000000a4 alt_dev_llist_insert
00031818 g     F .text	00000024 __malloc_lock
00023d78 g     F .text	00000028 _fprintf_r
00031c84 g     F .text	000000b0 sbrk
00023610 g     F .text	00000208 MipiCameraInit
00022cfc g     F .text	0000004c nSWAP16
0002958c g     F .text	0000005c _fflush_r
0002da0c g     F .text	000000c4 _calloc_r
00023818 g     F .text	00000070 QUEUE_New
00023d60 g     F .text	00000018 fopen
00039ec4 g       *ABS*	00000000 __bss_start
00024e88 g     F .text	00000128 memset
00021744 g     F .text	000015b8 main
00039f1c g     O .bss	00000004 alt_envp
00039efc g     O .bss	00000004 __malloc_max_total_mem
000321a4 g     F .text	00000060 altera_avalon_jtag_uart_write_fd
0002d9f4 g     F .text	00000018 __swbuf
00025570 g     F .text	00000008 __sclose
00040000 g       *ABS*	00000000 __alt_heap_limit
00037ab8 g     O .rwdata	00000004 yellow_hu
0002dbc0 g     F .text	00000014 fclose
00039ecc g     O .bss	00000004 green_sl
00027ce8 g     F .text	00001688 _dtoa_r
0002467c g     F .text	0000080c _malloc_r
0002df38 g     F .text	00000030 __ascii_wctomb
00037b00 g     O .rwdata	00000004 alt_errno
0002a354 g     F .text	000000c4 _fwalk
0002ba90 g     F .text	000000c8 putc
00023ab8 g     F .text	00000084 .hidden __divsi3
000204d4 g     F .text	00000084 oc_i2c_uninit
00029a64 g     F .text	00000124 _malloc_trim_r
000345d4 g       *ABS*	00000000 __CTOR_END__
00023450 g     F .text	000001c0 MIPI_BIN_LEVEL
0002c190 g     F .text	000000dc strcmp
000345d4 g       *ABS*	00000000 __flash_rodata_start
000345d4 g       *ABS*	00000000 __DTOR_LIST__
0002fc08 g     F .text	00000088 .hidden __nedf2
00039ee0 g     O .bss	00000004 yellow_sl
00032088 g     F .text	00000038 alt_irq_init
00031c20 g     F .text	00000064 alt_release_fd
00022e2c g     F .text	00000130 MipiBridgeInit
0003562c g     O .rodata	00000100 .hidden __clz_tab
00039f08 g     O .bss	00000004 _PathLocale
00034240 g     F .text	00000014 atexit
000278e0 g     F .text	00000060 _write_r
0002a5e8 g     F .text	00000018 setlocale
00037ad8 g     O .rwdata	00000004 _impure_ptr
00039f14 g     O .bss	00000004 alt_argc
00022db4 g     F .text	00000078 MipiBridgeRegRead
00029370 g     F .text	0000021c __sflush_r
000339f4 g     F .text	00000060 _do_dtors
0002a5d4 g     F .text	00000008 __locale_cjk_lang
00023dc4 g     F .text	00000004 _fseek_r
00037a7c g     O .rwdata	00000002 video_w
0002518c g     F .text	000001d4 __srefill_r
00020020 g       .exceptions	00000000 alt_irq_entry
0002b518 g     F .text	00000064 __ulp
000299a0 g     F .text	00000018 __fp_unlock_all
00037aec g     O .rwdata	00000008 alt_fs_list
000202e8 g     F .text	00000058 Read32_Data
000208a8 g     F .text	000001cc OC_I2C_Read
00020020 g       *ABS*	00000000 __ram_exceptions_start
0002a600 g     F .text	0000000c localeconv
00033ce0 g     F .text	00000050 alt_ic_isr_register
0002436c g     F .text	00000034 fwrite
00037b14 g       *ABS*	00000000 _edata
00032cc0 g     F .text	00000060 altera_avalon_uart_read_fd
0003a058 g       *ABS*	00000000 _end
00037ab4 g     O .rwdata	00000004 yellow_hl
00023394 g     F .text	000000bc OV8865ReadExposure
00037a98 g     O .rwdata	00000004 green_hl
0002dbd4 g     F .text	00000164 __fputwc
00020244 g       *ABS*	00000000 __ram_exceptions_end
0003268c g     F .text	000000f0 altera_avalon_jtag_uart_ioctl
00033dd0 g     F .text	000000a4 alt_ic_irq_disable
00025498 g     F .text	0000007c __swrite
00037ae0 g     O .rwdata	00000004 __malloc_trim_threshold
00037ac8 g     O .rwdata	00000004 pink_hu
00020a74 g     F .text	00000138 OC_I2C_Read_Continue
0002a5c8 g     F .text	0000000c __locale_msgcharset
00034254 g     F .text	00000038 exit
00037a86 g     O .rwdata	00000001 focus_th
0002a418 g     F .text	000000c4 _fwalk_reent
0002b31c g     F .text	000001fc __mdiff
00023b3c g     F .text	00000074 .hidden __modsi3
00037ab0 g     O .rwdata	00000004 red_vu
00040000 g       *ABS*	00000000 __alt_data_end
00020020 g     F .exceptions	00000000 alt_exception
0002997c g     F .text	00000004 __sfp_lock_release
000214ac g     F .text	00000098 mipi_show_error_info
00023888 g     F .text	00000034 QUEUE_Delete
00033144 g     F .text	00000054 altera_avalon_uart_close
00020dbc g     F .text	00000280 OC_I2CL_Read
00023c6c g     F .text	000000f4 _fopen_r
000345a0 g     F .text	00000034 _exit
000335c0 g     F .text	00000140 alt_alarm_start
00024498 g     F .text	000001bc __smakebuf_r
00025578 g     F .text	00000098 strlen
0003197c g     F .text	00000158 open
0002fc90 g     F .text	000000dc .hidden __gedf2
00037ae8 g     O .rwdata	00000004 __wctomb
0002c368 g     F .text	00000018 __sprint_r
00033cac g     F .text	00000034 alt_icache_flush_all
000231e8 g     F .text	000000e0 OV8865SetExposure
00037b10 g     O .rwdata	00000004 alt_priority_mask
00037a80 g     O .rwdata	00000002 focus_width
00033d30 g     F .text	000000a0 alt_ic_irq_enable
00027808 g     F .text	0000001c __vfprintf_internal
000331e8 g     F .text	000001dc altera_avalon_uart_read
0002df68 g     F .text	0000005c _wctomb_r
000216bc g     F .text	00000088 MIPI_Init
00039ee8 g     O .bss	00000004 pink_sl
00030578 g     F .text	000008fc .hidden __subdf3
00039ee4 g     O .bss	00000004 yellow_vl
00031278 g     F .text	00000120 fcntl
0002ad50 g     F .text	000000b0 __lo0bits
00037b08 g     O .rwdata	00000008 alt_alarm_list
00033994 g     F .text	00000060 _do_ctors
0002de78 g     F .text	000000c0 wcrtomb
0003112c g     F .text	000000d0 close
00023098 g     F .text	00000080 OV8865_read_AF
000315f4 g     F .text	00000084 alt_load
00037ac4 g     O .rwdata	00000004 pink_hl
0002dd5c g     F .text	00000080 fputwc
00024668 g     F .text	00000014 free
00029980 g     F .text	00000004 __sinit_lock_acquire
0002aac4 g     F .text	00000120 __multadd
0002aa9c g     F .text	00000028 _Bfree



Disassembly of section .entry:

00020000 <__reset>:
#if NIOS2_ICACHE_SIZE > 0 && defined(ALT_ALLOW_CODE_AT_RESET) && (!defined(ALT_SIM_OPTIMIZE) || defined(NIOS2_ECC_PRESENT))
    /* Assume the instruction cache size is always a power of two. */
#if NIOS2_ICACHE_SIZE > 0x8000
    movhi r2, %hi(NIOS2_ICACHE_SIZE)
#else
    movui r2, NIOS2_ICACHE_SIZE
   20000:	00840014 	movui	r2,4096
#endif

0:
    initi r2
   20004:	1001483a 	initi	r2
    addi r2, r2, -NIOS2_ICACHE_LINE_SIZE
   20008:	10bff804 	addi	r2,r2,-32
    bgt r2, zero, 0b
   2000c:	00bffd16 	blt	zero,r2,20004 <__alt_data_end+0xfffe0004>
 * Jump to the _start entry point in the .text section if reset code
 * is allowed or if optimizing for RTL simulation.
 */
#if defined(ALT_ALLOW_CODE_AT_RESET) || defined(ALT_SIM_OPTIMIZE)
    /* Jump to the _start entry point in the .text section. */
    movhi r1, %hi(_start)
   20010:	004000b4 	movhi	at,2
    ori r1, r1, %lo(_start)
   20014:	08409114 	ori	at,at,580
    jmp r1
   20018:	0800683a 	jmp	at
   2001c:	00000000 	call	0 <__alt_mem_onchip_memory2_0-0x20000>

Disassembly of section .exceptions:

00020020 <alt_exception>:

#else /* ALT_EXCEPTION_STACK disabled */
        /* 
         * Reserve space on normal stack for registers about to be pushed.
         */
        addi  sp, sp, -76
   20020:	deffed04 	addi	sp,sp,-76
         * documentation for details).
         *
         * Leave a gap in the stack frame at 4(sp) for the muldiv handler to
         * store zero into.
         */
        stw   ra,  0(sp)
   20024:	dfc00015 	stw	ra,0(sp)
        stw   r1,   8(sp)
   20028:	d8400215 	stw	at,8(sp)
        stw   r2,  12(sp)
   2002c:	d8800315 	stw	r2,12(sp)
        stw   r3,  16(sp)
   20030:	d8c00415 	stw	r3,16(sp)
        stw   r4,  20(sp)
   20034:	d9000515 	stw	r4,20(sp)
        stw   r5,  24(sp)
   20038:	d9400615 	stw	r5,24(sp)
        stw   r6,  28(sp)
   2003c:	d9800715 	stw	r6,28(sp)
        stw   r7,  32(sp)
   20040:	d9c00815 	stw	r7,32(sp)
        rdctl r5, estatus   /* Read early to avoid usage stall */
   20044:	000b307a 	rdctl	r5,estatus
        stw   r8,  36(sp)
   20048:	da000915 	stw	r8,36(sp)
        stw   r9,  40(sp)
   2004c:	da400a15 	stw	r9,40(sp)
        stw   r10, 44(sp)
   20050:	da800b15 	stw	r10,44(sp)
        stw   r11, 48(sp)
   20054:	dac00c15 	stw	r11,48(sp)
        stw   r12, 52(sp)
   20058:	db000d15 	stw	r12,52(sp)
        stw   r13, 56(sp)
   2005c:	db400e15 	stw	r13,56(sp)
        stw   r14, 60(sp)
   20060:	db800f15 	stw	r14,60(sp)
        stw   r15, 64(sp)
   20064:	dbc01015 	stw	r15,64(sp)
        /*
         * ea-4 contains the address of the instruction being executed
         * when the exception occured. For interrupt exceptions, we will
         * will be re-issue the isntruction. Store it in 72(sp)
         */
        stw   r5,  68(sp)  /* estatus */
   20068:	d9401115 	stw	r5,68(sp)
        addi  r15, ea, -4  /* instruction that caused exception */
   2006c:	ebffff04 	addi	r15,ea,-4
        stw   r15,  72(sp)
   20070:	dbc01215 	stw	r15,72(sp)
#else
        /*
         * Test to see if the exception was a software exception or caused 
         * by an external interrupt, and vector accordingly.
         */
        rdctl r4, ipending
   20074:	0009313a 	rdctl	r4,ipending
        andi  r2, r5, 1
   20078:	2880004c 	andi	r2,r5,1
        beq   r2, zero, .Lnot_irq
   2007c:	10000326 	beq	r2,zero,2008c <alt_exception+0x6c>
        beq   r4, zero, .Lnot_irq
   20080:	20000226 	beq	r4,zero,2008c <alt_exception+0x6c>
        /*
         * Now that all necessary registers have been preserved, call 
         * alt_irq_handler() to process the interrupts.
         */

        call alt_irq_handler
   20084:	00200fc0 	call	200fc <alt_irq_handler>

        .section .exceptions.irqreturn, "xa"

        br    .Lexception_exit
   20088:	00000706 	br	200a8 <alt_exception+0x88>
         * upon completion, so we write ea (address of instruction *after*
         * the one where the exception occured) into 72(sp). The actual
         * instruction that caused the exception is written in r2, which these
         * handlers will utilize.
         */
        stw ea, 72(sp) /* EA is PC+4 so will skip over instruction causing exception */
   2008c:	df401215 	stw	ea,72(sp)
.Lunknown_16bit:
        addi.n r4, r4, 2 /* Need PC+2 to skip over instruction causing exception */
        stw r4, 72(sp)

#else /* CDX is not Enabled and all instructions are 32bits */
        ldw r2, -4(ea) /* Instruction value that caused exception */
   20090:	e8bfff17 	ldw	r2,-4(ea)
         * debugger is present) or go into an infinite loop since the
         * handling behavior is undefined; in that case we will not return here.
         */

        /* Load exception-causing address as first argument (r4) */
        addi   r4, ea, -4
   20094:	e93fff04 	addi	r4,ea,-4

        /* Call the instruction-exception entry */
        call   alt_instruction_exception_entry
   20098:	00201d00 	call	201d0 <alt_instruction_exception_entry>
         * instruction
         *
         * Return code was 0: Skip. The instruction after the exception is
         * already stored in 72(sp).
         */
        bne   r2, r0, .Lexception_exit
   2009c:	1000021e 	bne	r2,zero,200a8 <alt_exception+0x88>

        /*
         * Otherwise, modify 72(sp) to re-issue the instruction that caused the
         * exception.
         */
        addi  r15, ea, -4  /* instruction that caused exception */
   200a0:	ebffff04 	addi	r15,ea,-4
        stw   r15,  72(sp)
   200a4:	dbc01215 	stw	r15,72(sp)
        /* 
         * Restore the saved registers, so that all general purpose registers 
         * have been restored to their state at the time the interrupt occured.
         */

        ldw   r5,  68(sp)
   200a8:	d9401117 	ldw	r5,68(sp)
        ldw   ea,  72(sp)  /* This becomes the PC once eret is executed */
   200ac:	df401217 	ldw	ea,72(sp)
        ldw   ra,   0(sp)
   200b0:	dfc00017 	ldw	ra,0(sp)

        wrctl estatus, r5
   200b4:	2801707a 	wrctl	estatus,r5

        ldw   r1,   8(sp)
   200b8:	d8400217 	ldw	at,8(sp)
        ldw   r2,  12(sp)
   200bc:	d8800317 	ldw	r2,12(sp)
        ldw   r3,  16(sp)
   200c0:	d8c00417 	ldw	r3,16(sp)
        ldw   r4,  20(sp)
   200c4:	d9000517 	ldw	r4,20(sp)
        ldw   r5,  24(sp)
   200c8:	d9400617 	ldw	r5,24(sp)
        ldw   r6,  28(sp)
   200cc:	d9800717 	ldw	r6,28(sp)
        ldw   r7,  32(sp)
   200d0:	d9c00817 	ldw	r7,32(sp)

#if defined(ALT_EXCEPTION_STACK) && defined(ALT_STACK_CHECK)
        ldw   et, %gprel(alt_exception_old_stack_limit)(gp)
#endif

        ldw   r8,  36(sp)
   200d4:	da000917 	ldw	r8,36(sp)
        ldw   r9,  40(sp)
   200d8:	da400a17 	ldw	r9,40(sp)
        ldw   r10, 44(sp)
   200dc:	da800b17 	ldw	r10,44(sp)
        ldw   r11, 48(sp)
   200e0:	dac00c17 	ldw	r11,48(sp)
        ldw   r12, 52(sp)
   200e4:	db000d17 	ldw	r12,52(sp)
        ldw   r13, 56(sp)
   200e8:	db400e17 	ldw	r13,56(sp)
        ldw   r14, 60(sp)
   200ec:	db800f17 	ldw	r14,60(sp)
        ldw   r15, 64(sp)
   200f0:	dbc01017 	ldw	r15,64(sp)
        stw   et, %gprel(alt_stack_limit_value)(gp)
        stw   zero, %gprel(alt_exception_old_stack_limit)(gp)
#endif /* ALT_STACK_CHECK */
        ldw   sp,  76(sp)
#else /* ALT_EXCEPTION_STACK disabled */
        addi  sp, sp, 76
   200f4:	dec01304 	addi	sp,sp,76

        /*
         * Return to the interrupted instruction.
         */

        eret
   200f8:	ef80083a 	eret

000200fc <alt_irq_handler>:
 * instruction is present if the macro ALT_CI_INTERRUPT_VECTOR defined.
 */

void alt_irq_handler (void) __attribute__ ((section (".exceptions")));
void alt_irq_handler (void)
{
   200fc:	defff904 	addi	sp,sp,-28
   20100:	dfc00615 	stw	ra,24(sp)
   20104:	df000515 	stw	fp,20(sp)
   20108:	df000504 	addi	fp,sp,20
  
  /*
   * Notify the operating system that we are at interrupt level.
   */ 
  
  ALT_OS_INT_ENTER();
   2010c:	0001883a 	nop
#ifndef NIOS2_EIC_PRESENT
static ALT_INLINE alt_u32 ALT_ALWAYS_INLINE alt_irq_pending (void)
{
  alt_u32 active;

  NIOS2_READ_IPENDING (active);
   20110:	0005313a 	rdctl	r2,ipending
   20114:	e0bffe15 	stw	r2,-8(fp)

  return active;
   20118:	e0bffe17 	ldw	r2,-8(fp)
   * Consider the case where the high priority interupt is asserted during
   * the interrupt entry sequence for a lower priority interrupt to see why
   * this is the case.
   */

  active = alt_irq_pending ();
   2011c:	e0bffb15 	stw	r2,-20(fp)

  do
  {
    i = 0;
   20120:	e03ffd15 	stw	zero,-12(fp)
    mask = 1;
   20124:	00800044 	movi	r2,1
   20128:	e0bffc15 	stw	r2,-16(fp)
     * called to clear the interrupt condition.
     */

    do
    {
      if (active & mask)
   2012c:	e0fffb17 	ldw	r3,-20(fp)
   20130:	e0bffc17 	ldw	r2,-16(fp)
   20134:	1884703a 	and	r2,r3,r2
   20138:	10001426 	beq	r2,zero,2018c <alt_irq_handler+0x90>
      { 
#ifdef ALT_ENHANCED_INTERRUPT_API_PRESENT
        alt_irq[i].handler(alt_irq[i].context); 
   2013c:	00800134 	movhi	r2,4
   20140:	10a7d604 	addi	r2,r2,-24744
   20144:	e0fffd17 	ldw	r3,-12(fp)
   20148:	180690fa 	slli	r3,r3,3
   2014c:	10c5883a 	add	r2,r2,r3
   20150:	10c00017 	ldw	r3,0(r2)
   20154:	00800134 	movhi	r2,4
   20158:	10a7d604 	addi	r2,r2,-24744
   2015c:	e13ffd17 	ldw	r4,-12(fp)
   20160:	200890fa 	slli	r4,r4,3
   20164:	1105883a 	add	r2,r2,r4
   20168:	10800104 	addi	r2,r2,4
   2016c:	10800017 	ldw	r2,0(r2)
   20170:	1009883a 	mov	r4,r2
   20174:	183ee83a 	callr	r3
#else
        alt_irq[i].handler(alt_irq[i].context, i); 
#endif
        break;
   20178:	0001883a 	nop
#ifndef NIOS2_EIC_PRESENT
static ALT_INLINE alt_u32 ALT_ALWAYS_INLINE alt_irq_pending (void)
{
  alt_u32 active;

  NIOS2_READ_IPENDING (active);
   2017c:	0005313a 	rdctl	r2,ipending
   20180:	e0bfff15 	stw	r2,-4(fp)

  return active;
   20184:	e0bfff17 	ldw	r2,-4(fp)
   20188:	00000706 	br	201a8 <alt_irq_handler+0xac>
      }
      mask <<= 1;
   2018c:	e0bffc17 	ldw	r2,-16(fp)
   20190:	1085883a 	add	r2,r2,r2
   20194:	e0bffc15 	stw	r2,-16(fp)
      i++;
   20198:	e0bffd17 	ldw	r2,-12(fp)
   2019c:	10800044 	addi	r2,r2,1
   201a0:	e0bffd15 	stw	r2,-12(fp)

    } while (1);
   201a4:	003fe106 	br	2012c <__alt_data_end+0xfffe012c>

    active = alt_irq_pending ();
   201a8:	e0bffb15 	stw	r2,-20(fp)
    
  } while (active);
   201ac:	e0bffb17 	ldw	r2,-20(fp)
   201b0:	103fdb1e 	bne	r2,zero,20120 <__alt_data_end+0xfffe0120>

  /*
   * Notify the operating system that interrupt processing is complete.
   */ 

  ALT_OS_INT_EXIT();
   201b4:	0001883a 	nop
}
   201b8:	0001883a 	nop
   201bc:	e037883a 	mov	sp,fp
   201c0:	dfc00117 	ldw	ra,4(sp)
   201c4:	df000017 	ldw	fp,0(sp)
   201c8:	dec00204 	addi	sp,sp,8
   201cc:	f800283a 	ret

000201d0 <alt_instruction_exception_entry>:
 * that handler if it has been registered. Absent a handler, it will
 * break break or hang as discussed below.
 */
int 
alt_instruction_exception_entry (alt_u32 exception_pc)
{
   201d0:	defffb04 	addi	sp,sp,-20
   201d4:	dfc00415 	stw	ra,16(sp)
   201d8:	df000315 	stw	fp,12(sp)
   201dc:	df000304 	addi	fp,sp,12
   201e0:	e13fff15 	stw	r4,-4(fp)
 * NIOS2_EXCEPTION_CAUSE_NOT_PRESENT. Your handling routine should
 * check the validity of the cause argument before proceeding.
 */
#ifdef NIOS2_HAS_EXTRA_EXCEPTION_INFO
  /* Get exception cause & "badaddr" */
  NIOS2_READ_EXCEPTION(cause);
   201e4:	000531fa 	rdctl	r2,exception
   201e8:	e0bffd15 	stw	r2,-12(fp)
  cause = ( (cause & NIOS2_EXCEPTION_REG_CAUSE_MASK) >>
   201ec:	e0bffd17 	ldw	r2,-12(fp)
   201f0:	10801f0c 	andi	r2,r2,124
   201f4:	1004d0ba 	srli	r2,r2,2
   201f8:	e0bffd15 	stw	r2,-12(fp)
              NIOS2_EXCEPTION_REG_CAUSE_OFST );

  NIOS2_READ_BADADDR(badaddr);
   201fc:	0005333a 	rdctl	r2,badaddr
   20200:	e0bffe15 	stw	r2,-8(fp)
#else
  cause = NIOS2_EXCEPTION_CAUSE_NOT_PRESENT;
  badaddr = 0;
#endif /* NIOS2_HAS_EXTRA_EXCEPTION_INFO */

  if(alt_instruction_exception_handler) {
   20204:	d0a92c17 	ldw	r2,-23376(gp)
   20208:	10000726 	beq	r2,zero,20228 <alt_instruction_exception_entry+0x58>
     * Call handler. Its return value indicates whether the exception-causing
     * instruction should be re-issued. The code that called us,
     * alt_eceptions_entry.S, will look at this value and adjust the ea
     * register as necessary
     */
    return alt_instruction_exception_handler(cause, exception_pc, badaddr);
   2020c:	d0a92c17 	ldw	r2,-23376(gp)
   20210:	e0fffd17 	ldw	r3,-12(fp)
   20214:	e1bffe17 	ldw	r6,-8(fp)
   20218:	e17fff17 	ldw	r5,-4(fp)
   2021c:	1809883a 	mov	r4,r3
   20220:	103ee83a 	callr	r2
   20224:	00000206 	br	20230 <alt_instruction_exception_entry+0x60>
   *    (a peripheral which negates its interrupt output before its
   *    interrupt handler has been executed will cause spurious interrupts)
   */
  else {
#ifdef NIOS2_HAS_DEBUG_STUB
    NIOS2_BREAK();
   20228:	003da03a 	break	0
      ;
#endif /* NIOS2_HAS_DEBUG_STUB */
  }

  /* We should not get here. Remove compiler warning. */
  return NIOS2_EXCEPTION_RETURN_REISSUE_INST;
   2022c:	0005883a 	mov	r2,zero
}
   20230:	e037883a 	mov	sp,fp
   20234:	dfc00117 	ldw	ra,4(sp)
   20238:	df000017 	ldw	fp,0(sp)
   2023c:	dec00204 	addi	sp,sp,8
   20240:	f800283a 	ret

Disassembly of section .text:

00020244 <_start>:

    /* Assume the data cache size is always a power of two. */
#if NIOS2_DCACHE_SIZE > 0x8000
    movhi r2, %hi(NIOS2_DCACHE_SIZE)
#else
    movui r2, NIOS2_DCACHE_SIZE
   20244:	00820014 	movui	r2,2048
#endif

0:
    initd 0(r2)
   20248:	10000033 	initd	0(r2)
#ifdef NIOS2_ECC_PRESENT
    addi r2, r2, -4
#else
    addi r2, r2, -NIOS2_DCACHE_LINE_SIZE
   2024c:	10bff804 	addi	r2,r2,-32
#endif
    bgt r2, zero, 0b
   20250:	00bffd16 	blt	zero,r2,20248 <__alt_data_end+0xfffe0248>

    /*
     * Now that the caches are initialized, set up the stack pointer and global pointer.
     * The values provided by the linker are assumed to be correctly aligned.
     */
    movhi sp, %hi(__alt_stack_pointer)
   20254:	06c00134 	movhi	sp,4
    ori sp, sp, %lo(__alt_stack_pointer)
   20258:	dec00014 	ori	sp,sp,0
    movhi gp, %hi(_gp)
   2025c:	068000f4 	movhi	gp,3
    ori gp, gp, %lo(_gp)
   20260:	d6be9f14 	ori	gp,gp,64124
 */
#ifndef ALT_SIM_OPTIMIZE
    /* Log that the BSS is about to be cleared. */
    ALT_LOG_PUTS(alt_log_msg_bss)

    movhi r2, %hi(__bss_start)
   20264:	008000f4 	movhi	r2,3
    ori r2, r2, %lo(__bss_start)
   20268:	10a7b114 	ori	r2,r2,40644

    movhi r3, %hi(__bss_end)
   2026c:	00c000f4 	movhi	r3,3
    ori r3, r3, %lo(__bss_end)
   20270:	18e81614 	ori	r3,r3,41048

    beq r2, r3, 1f
   20274:	10c00326 	beq	r2,r3,20284 <_start+0x40>

0:
    stw zero, (r2)
   20278:	10000015 	stw	zero,0(r2)
    addi r2, r2, 4
   2027c:	10800104 	addi	r2,r2,4
    bltu r2, r3, 0b
   20280:	10fffd36 	bltu	r2,r3,20278 <__alt_data_end+0xfffe0278>
     * section aren't defined until alt_load() has been called).
     */
    mov   et, zero
#endif

    call alt_load
   20284:	00315f40 	call	315f4 <alt_load>

    /* Log that alt_main is about to be called. */
    ALT_LOG_PUTS(alt_log_msg_alt_main)

    /* Call the C entry point. It should never return. */
    call alt_main
   20288:	003179c0 	call	3179c <alt_main>

0002028c <alt_after_alt_main>:

    /* Wait in infinite loop in case alt_main does return. */
alt_after_alt_main:
    br alt_after_alt_main
   2028c:	003fff06 	br	2028c <__alt_data_end+0xfffe028c>

00020290 <Write32_Data>:
#define SLEEP_TIME 250  //us
#define ACK_SLEEP_TIME 250 //us
#define TRUE 1
#define FALSE 0

bool Write32_Data(alt_32 base_address, alt_32 offset_address, alt_32 Data){
   20290:	defffb04 	addi	sp,sp,-20
   20294:	df000415 	stw	fp,16(sp)
   20298:	df000404 	addi	fp,sp,16
   2029c:	e13ffd15 	stw	r4,-12(fp)
   202a0:	e17ffe15 	stw	r5,-8(fp)
   202a4:	e1bfff15 	stw	r6,-4(fp)
	bool bPass;
    IOWR(base_address, offset_address,Data);
   202a8:	e0bffe17 	ldw	r2,-8(fp)
   202ac:	1085883a 	add	r2,r2,r2
   202b0:	1085883a 	add	r2,r2,r2
   202b4:	1007883a 	mov	r3,r2
   202b8:	e0bffd17 	ldw	r2,-12(fp)
   202bc:	1885883a 	add	r2,r3,r2
   202c0:	1007883a 	mov	r3,r2
   202c4:	e0bfff17 	ldw	r2,-4(fp)
   202c8:	18800035 	stwio	r2,0(r3)
    bPass=TRUE;
   202cc:	00800044 	movi	r2,1
   202d0:	e0bffc15 	stw	r2,-16(fp)
    return bPass;
   202d4:	e0bffc17 	ldw	r2,-16(fp)
}
   202d8:	e037883a 	mov	sp,fp
   202dc:	df000017 	ldw	fp,0(sp)
   202e0:	dec00104 	addi	sp,sp,4
   202e4:	f800283a 	ret

000202e8 <Read32_Data>:



bool  Read32_Data(alt_32 base_address, alt_32 offset_address, alt_32 *pData32){
   202e8:	defffb04 	addi	sp,sp,-20
   202ec:	df000415 	stw	fp,16(sp)
   202f0:	df000404 	addi	fp,sp,16
   202f4:	e13ffd15 	stw	r4,-12(fp)
   202f8:	e17ffe15 	stw	r5,-8(fp)
   202fc:	e1bfff15 	stw	r6,-4(fp)
	bool bPass;
	*pData32 =IORD(base_address ,offset_address  );
   20300:	e0bffe17 	ldw	r2,-8(fp)
   20304:	1085883a 	add	r2,r2,r2
   20308:	1085883a 	add	r2,r2,r2
   2030c:	1007883a 	mov	r3,r2
   20310:	e0bffd17 	ldw	r2,-12(fp)
   20314:	1885883a 	add	r2,r3,r2
   20318:	10c00037 	ldwio	r3,0(r2)
   2031c:	e0bfff17 	ldw	r2,-4(fp)
   20320:	10c00015 	stw	r3,0(r2)
	bPass=TRUE;
   20324:	00800044 	movi	r2,1
   20328:	e0bffc15 	stw	r2,-16(fp)
    return bPass;
   2032c:	e0bffc17 	ldw	r2,-16(fp)
}
   20330:	e037883a 	mov	sp,fp
   20334:	df000017 	ldw	fp,0(sp)
   20338:	dec00104 	addi	sp,sp,4
   2033c:	f800283a 	ret

00020340 <oc_i2c_init>:

bool oc_i2c_init(alt_32 i2c_base){
   20340:	defffa04 	addi	sp,sp,-24
   20344:	dfc00515 	stw	ra,20(sp)
   20348:	df000415 	stw	fp,16(sp)
   2034c:	df000404 	addi	fp,sp,16
   20350:	e13fff15 	stw	r4,-4(fp)
	bool bSuccess;
	const alt_32 ref_clk = 50*1000*1000; // 50MHz
   20354:	0080bef4 	movhi	r2,763
   20358:	10bc2004 	addi	r2,r2,-3968
   2035c:	e0bffc15 	stw	r2,-16(fp)
	const alt_32 i2c_clk = 400*1000; // 400KHz
   20360:	008001b4 	movhi	r2,6
   20364:	1086a004 	addi	r2,r2,6784
   20368:	e0bffd15 	stw	r2,-12(fp)

	bSuccess = oc_i2c_init_ex(i2c_base, ref_clk, i2c_clk);
   2036c:	e1bffd17 	ldw	r6,-12(fp)
   20370:	e17ffc17 	ldw	r5,-16(fp)
   20374:	e13fff17 	ldw	r4,-4(fp)
   20378:	00203980 	call	20398 <oc_i2c_init_ex>
   2037c:	e0bffe15 	stw	r2,-8(fp)

	return bSuccess;
   20380:	e0bffe17 	ldw	r2,-8(fp)
}
   20384:	e037883a 	mov	sp,fp
   20388:	dfc00117 	ldw	ra,4(sp)
   2038c:	df000017 	ldw	fp,0(sp)
   20390:	dec00204 	addi	sp,sp,8
   20394:	f800283a 	ret

00020398 <oc_i2c_init_ex>:

bool  oc_i2c_init_ex(alt_32 i2c_base, alt_32 ref_clk, alt_32 i2c_clk)
{
   20398:	defff604 	addi	sp,sp,-40
   2039c:	dfc00915 	stw	ra,36(sp)
   203a0:	df000815 	stw	fp,32(sp)
   203a4:	df000804 	addi	fp,sp,32
   203a8:	e13ffd15 	stw	r4,-12(fp)
   203ac:	e17ffe15 	stw	r5,-8(fp)
   203b0:	e1bfff15 	stw	r6,-4(fp)
	bool bSuccess=TRUE;
   203b4:	00800044 	movi	r2,1
   203b8:	e0bff815 	stw	r2,-32(fp)
	alt_32 read_data;
	alt_32 prescale;
	alt_u8 prescale_high;
	alt_u8 prescale_low;
	const alt_u8 ControlValue = 0x80;
   203bc:	00bfe004 	movi	r2,-128
   203c0:	e0bff905 	stb	r2,-28(fp)

    // I2c sysclock =50M hz
	// i2c scl max 400k
	//scl =sysclock/(prescale*5)
	prescale = (ref_clk/(5*i2c_clk))-1;
   203c4:	e0bfff17 	ldw	r2,-4(fp)
   203c8:	10800164 	muli	r2,r2,5
   203cc:	100b883a 	mov	r5,r2
   203d0:	e13ffe17 	ldw	r4,-8(fp)
   203d4:	0023ab80 	call	23ab8 <__divsi3>
   203d8:	10bfffc4 	addi	r2,r2,-1
   203dc:	e0bffa15 	stw	r2,-24(fp)
	prescale_low = prescale & 0xFF;
   203e0:	e0bffa17 	ldw	r2,-24(fp)
   203e4:	e0bffb05 	stb	r2,-20(fp)
	prescale_high = (prescale >> 8) & 0xFF;
   203e8:	e0bffa17 	ldw	r2,-24(fp)
   203ec:	1005d23a 	srai	r2,r2,8
   203f0:	e0bffb45 	stb	r2,-19(fp)

   IOWR(i2c_base, 0, prescale_low);//write low byte of  prescale (reg 0)
   203f4:	e0bffd17 	ldw	r2,-12(fp)
   203f8:	e0fffb03 	ldbu	r3,-20(fp)
   203fc:	10c00035 	stwio	r3,0(r2)
   IOWR(i2c_base, 1, prescale_high);//write high byte of prescale (reg 1)
   20400:	e0bffd17 	ldw	r2,-12(fp)
   20404:	10800104 	addi	r2,r2,4
   20408:	1007883a 	mov	r3,r2
   2040c:	e0bffb43 	ldbu	r2,-19(fp)
   20410:	18800035 	stwio	r2,0(r3)

   //enable the I2C core, but disable the IRQ
   IOWR( i2c_base, 2, ControlValue);
   20414:	e0bffd17 	ldw	r2,-12(fp)
   20418:	10800204 	addi	r2,r2,8
   2041c:	1007883a 	mov	r3,r2
   20420:	e0bff903 	ldbu	r2,-28(fp)
   20424:	18800035 	stwio	r2,0(r3)


    // check prescale low byte
    if (bSuccess){
   20428:	e0bff817 	ldw	r2,-32(fp)
   2042c:	10000826 	beq	r2,zero,20450 <oc_i2c_init_ex+0xb8>
    	read_data =IORD(i2c_base, 0);
   20430:	e0bffd17 	ldw	r2,-12(fp)
   20434:	10800037 	ldwio	r2,0(r2)
   20438:	e0bffc15 	stw	r2,-16(fp)
        if( (read_data & 0x00ff) != prescale_low ){
   2043c:	e0bffc17 	ldw	r2,-16(fp)
   20440:	10c03fcc 	andi	r3,r2,255
   20444:	e0bffb03 	ldbu	r2,-20(fp)
   20448:	18800126 	beq	r3,r2,20450 <oc_i2c_init_ex+0xb8>
            bSuccess = FALSE;
   2044c:	e03ff815 	stw	zero,-32(fp)
        }
    }

    // check prescale high byte
    if (bSuccess){
   20450:	e0bff817 	ldw	r2,-32(fp)
   20454:	10000926 	beq	r2,zero,2047c <oc_i2c_init_ex+0xe4>
    	read_data =IORD(i2c_base, 1);
   20458:	e0bffd17 	ldw	r2,-12(fp)
   2045c:	10800104 	addi	r2,r2,4
   20460:	10800037 	ldwio	r2,0(r2)
   20464:	e0bffc15 	stw	r2,-16(fp)
        if( (read_data & 0x00ff) != prescale_high ){
   20468:	e0bffc17 	ldw	r2,-16(fp)
   2046c:	10c03fcc 	andi	r3,r2,255
   20470:	e0bffb43 	ldbu	r2,-19(fp)
   20474:	18800126 	beq	r3,r2,2047c <oc_i2c_init_ex+0xe4>
            bSuccess = FALSE;
   20478:	e03ff815 	stw	zero,-32(fp)
        }
    }

    // check control
    if (bSuccess){
   2047c:	e0bff817 	ldw	r2,-32(fp)
   20480:	10000926 	beq	r2,zero,204a8 <oc_i2c_init_ex+0x110>
    	read_data =IORD(i2c_base, 2);
   20484:	e0bffd17 	ldw	r2,-12(fp)
   20488:	10800204 	addi	r2,r2,8
   2048c:	10800037 	ldwio	r2,0(r2)
   20490:	e0bffc15 	stw	r2,-16(fp)
        if( (read_data & 0x00ff) != ControlValue ){
   20494:	e0bffc17 	ldw	r2,-16(fp)
   20498:	10c03fcc 	andi	r3,r2,255
   2049c:	e0bff903 	ldbu	r2,-28(fp)
   204a0:	18800126 	beq	r3,r2,204a8 <oc_i2c_init_ex+0x110>
            bSuccess = FALSE;
   204a4:	e03ff815 	stw	zero,-32(fp)
        }
    }

   if (bSuccess){
   204a8:	e0bff817 	ldw	r2,-32(fp)
   204ac:	1000031e 	bne	r2,zero,204bc <oc_i2c_init_ex+0x124>
//       printf("\nI2C core is enabled! \r\n");
   }
   else
       printf("\nI2C core is not enabled successfully! \r\n");
   204b0:	010000f4 	movhi	r4,3
   204b4:	21117504 	addi	r4,r4,17876
   204b8:	002515c0 	call	2515c <puts>

   return bSuccess;
   204bc:	e0bff817 	ldw	r2,-32(fp)

}
   204c0:	e037883a 	mov	sp,fp
   204c4:	dfc00117 	ldw	ra,4(sp)
   204c8:	df000017 	ldw	fp,0(sp)
   204cc:	dec00204 	addi	sp,sp,8
   204d0:	f800283a 	ret

000204d4 <oc_i2c_uninit>:

bool oc_i2c_uninit(alt_32 i2c_base)
{
   204d4:	defffa04 	addi	sp,sp,-24
   204d8:	dfc00515 	stw	ra,20(sp)
   204dc:	df000415 	stw	fp,16(sp)
   204e0:	df000404 	addi	fp,sp,16
   204e4:	e13fff15 	stw	r4,-4(fp)
	bool bSuccess=TRUE;
   204e8:	00800044 	movi	r2,1
   204ec:	e0bffc15 	stw	r2,-16(fp)
	alt_32 read_data;
	const alt_u8 ControlValue = 0x00;
   204f0:	e03ffd05 	stb	zero,-12(fp)

    IOWR( i2c_base, 2, ControlValue);
   204f4:	e0bfff17 	ldw	r2,-4(fp)
   204f8:	10800204 	addi	r2,r2,8
   204fc:	1007883a 	mov	r3,r2
   20500:	e0bffd03 	ldbu	r2,-12(fp)
   20504:	18800035 	stwio	r2,0(r3)
   	read_data =IORD(i2c_base, 2);
   20508:	e0bfff17 	ldw	r2,-4(fp)
   2050c:	10800204 	addi	r2,r2,8
   20510:	10800037 	ldwio	r2,0(r2)
   20514:	e0bffe15 	stw	r2,-8(fp)
	if( (read_data & 0x00ff) != ControlValue ){
   20518:	e0bffe17 	ldw	r2,-8(fp)
   2051c:	10c03fcc 	andi	r3,r2,255
   20520:	e0bffd03 	ldbu	r2,-12(fp)
   20524:	18800126 	beq	r3,r2,2052c <oc_i2c_uninit+0x58>
            bSuccess = FALSE;
   20528:	e03ffc15 	stw	zero,-16(fp)
    }

   if (bSuccess){
   2052c:	e0bffc17 	ldw	r2,-16(fp)
   20530:	1000031e 	bne	r2,zero,20540 <oc_i2c_uninit+0x6c>
//       printf("\I2C core  is disabled! \r\n");
   }
   else
       printf("\I2C core is failed to disable! \r\n");
   20534:	010000f4 	movhi	r4,3
   20538:	21118004 	addi	r4,r4,17920
   2053c:	002515c0 	call	2515c <puts>

   return bSuccess;
   20540:	e0bffc17 	ldw	r2,-16(fp)

}
   20544:	e037883a 	mov	sp,fp
   20548:	dfc00117 	ldw	ra,4(sp)
   2054c:	df000017 	ldw	fp,0(sp)
   20550:	dec00204 	addi	sp,sp,8
   20554:	f800283a 	ret

00020558 <ACK_single_check>:




bool  ACK_single_check(alt_32 i2c_base)
{
   20558:	defffb04 	addi	sp,sp,-20
   2055c:	dfc00415 	stw	ra,16(sp)
   20560:	df000315 	stw	fp,12(sp)
   20564:	df000304 	addi	fp,sp,12
   20568:	e13fff15 	stw	r4,-4(fp)
	bool bSuccess=TRUE;
   2056c:	00800044 	movi	r2,1
   20570:	e0bffd15 	stw	r2,-12(fp)
	alt_32 read_data;

    usleep(ACK_SLEEP_TIME);
   20574:	01003e84 	movi	r4,250
   20578:	0031ed80 	call	31ed8 <usleep>
    read_data =IORD(i2c_base, 4);
   2057c:	e0bfff17 	ldw	r2,-4(fp)
   20580:	10800404 	addi	r2,r2,16
   20584:	10800037 	ldwio	r2,0(r2)
   20588:	e0bffe15 	stw	r2,-8(fp)
    if(read_data & 0x02)
   2058c:	e0bffe17 	ldw	r2,-8(fp)
   20590:	1080008c 	andi	r2,r2,2
   20594:	10000126 	beq	r2,zero,2059c <ACK_single_check+0x44>
            bSuccess = FALSE;
   20598:	e03ffd15 	stw	zero,-12(fp)
     if (bSuccess){
   2059c:	e0bffd17 	ldw	r2,-12(fp)
   205a0:	10000a26 	beq	r2,zero,205cc <ACK_single_check+0x74>
            usleep(ACK_SLEEP_TIME);
   205a4:	01003e84 	movi	r4,250
   205a8:	0031ed80 	call	31ed8 <usleep>
            read_data =IORD(i2c_base, 4);
   205ac:	e0bfff17 	ldw	r2,-4(fp)
   205b0:	10800404 	addi	r2,r2,16
   205b4:	10800037 	ldwio	r2,0(r2)
   205b8:	e0bffe15 	stw	r2,-8(fp)
                if(read_data & 0x80)
   205bc:	e0bffe17 	ldw	r2,-8(fp)
   205c0:	1080200c 	andi	r2,r2,128
   205c4:	10000126 	beq	r2,zero,205cc <ACK_single_check+0x74>
                    bSuccess = FALSE;
   205c8:	e03ffd15 	stw	zero,-12(fp)
     }
    return bSuccess;
   205cc:	e0bffd17 	ldw	r2,-12(fp)
}
   205d0:	e037883a 	mov	sp,fp
   205d4:	dfc00117 	ldw	ra,4(sp)
   205d8:	df000017 	ldw	fp,0(sp)
   205dc:	dec00204 	addi	sp,sp,8
   205e0:	f800283a 	ret

000205e4 <ACK_check>:


bool  ACK_check(alt_32 i2c_base){
   205e4:	defffb04 	addi	sp,sp,-20
   205e8:	dfc00415 	stw	ra,16(sp)
   205ec:	df000315 	stw	fp,12(sp)
   205f0:	df000304 	addi	fp,sp,12
   205f4:	e13fff15 	stw	r4,-4(fp)
    bool bSuccess = FALSE;
   205f8:	e03ffd15 	stw	zero,-12(fp)
    int i=0;
   205fc:	e03ffe15 	stw	zero,-8(fp)

    while(!bSuccess && i++ < 10){
   20600:	00000306 	br	20610 <ACK_check+0x2c>
        bSuccess = ACK_single_check(i2c_base);
   20604:	e13fff17 	ldw	r4,-4(fp)
   20608:	00205580 	call	20558 <ACK_single_check>
   2060c:	e0bffd15 	stw	r2,-12(fp)

bool  ACK_check(alt_32 i2c_base){
    bool bSuccess = FALSE;
    int i=0;

    while(!bSuccess && i++ < 10){
   20610:	e0bffd17 	ldw	r2,-12(fp)
   20614:	1000051e 	bne	r2,zero,2062c <ACK_check+0x48>
   20618:	e0bffe17 	ldw	r2,-8(fp)
   2061c:	10c00044 	addi	r3,r2,1
   20620:	e0fffe15 	stw	r3,-8(fp)
   20624:	10800290 	cmplti	r2,r2,10
   20628:	103ff61e 	bne	r2,zero,20604 <__alt_data_end+0xfffe0604>
        bSuccess = ACK_single_check(i2c_base);
    }

    return bSuccess;
   2062c:	e0bffd17 	ldw	r2,-12(fp)
}
   20630:	e037883a 	mov	sp,fp
   20634:	dfc00117 	ldw	ra,4(sp)
   20638:	df000017 	ldw	fp,0(sp)
   2063c:	dec00204 	addi	sp,sp,8
   20640:	f800283a 	ret

00020644 <OC_I2C_Write>:

bool  OC_I2C_Write(alt_32 i2c_base,alt_u8 device_address,alt_u8 sub_address, alt_u8 *pData, int nWriteLength)
{
   20644:	defff904 	addi	sp,sp,-28
   20648:	dfc00615 	stw	ra,24(sp)
   2064c:	df000515 	stw	fp,20(sp)
   20650:	df000504 	addi	fp,sp,20
   20654:	e13ffc15 	stw	r4,-16(fp)
   20658:	2807883a 	mov	r3,r5
   2065c:	3005883a 	mov	r2,r6
   20660:	e1ffff15 	stw	r7,-4(fp)
   20664:	e0fffd05 	stb	r3,-12(fp)
   20668:	e0bffe05 	stb	r2,-8(fp)
    //DWORD reg_data = 0x0;
    int i;

   //set the tx reg audio chip dev address with write bit
   if (!Write32_Data( i2c_base, 3,device_address)){
   2066c:	e0bffd03 	ldbu	r2,-12(fp)
   20670:	100d883a 	mov	r6,r2
   20674:	014000c4 	movi	r5,3
   20678:	e13ffc17 	ldw	r4,-16(fp)
   2067c:	00202900 	call	20290 <Write32_Data>
   20680:	1000051e 	bne	r2,zero,20698 <OC_I2C_Write+0x54>
       printf("OC_I2C_Write error[0]\r\n");
   20684:	010000f4 	movhi	r4,3
   20688:	21118904 	addi	r4,r4,17956
   2068c:	002515c0 	call	2515c <puts>
       return FALSE;
   20690:	0005883a 	mov	r2,zero
   20694:	00006606 	br	20830 <OC_I2C_Write+0x1ec>
   }
   //set STA and WR bits(bit7 and bit4)
   if (!Write32_Data( i2c_base, 4,0x90)){
   20698:	01802404 	movi	r6,144
   2069c:	01400104 	movi	r5,4
   206a0:	e13ffc17 	ldw	r4,-16(fp)
   206a4:	00202900 	call	20290 <Write32_Data>
   206a8:	1000051e 	bne	r2,zero,206c0 <OC_I2C_Write+0x7c>
       printf("OC_I2C_Write error[1]\r\n");
   206ac:	010000f4 	movhi	r4,3
   206b0:	21118f04 	addi	r4,r4,17980
   206b4:	002515c0 	call	2515c <puts>
       return FALSE;
   206b8:	0005883a 	mov	r2,zero
   206bc:	00005c06 	br	20830 <OC_I2C_Write+0x1ec>
   }

   //wait TIP bit go to 0 to end Tx
    if(!ACK_check( i2c_base)){
   206c0:	e13ffc17 	ldw	r4,-16(fp)
   206c4:	00205e40 	call	205e4 <ACK_check>
   206c8:	1000051e 	bne	r2,zero,206e0 <OC_I2C_Write+0x9c>
        printf("OC_I2C_Write error[2]\r\n");
   206cc:	010000f4 	movhi	r4,3
   206d0:	21119504 	addi	r4,r4,18004
   206d4:	002515c0 	call	2515c <puts>
        return FALSE;
   206d8:	0005883a 	mov	r2,zero
   206dc:	00005406 	br	20830 <OC_I2C_Write+0x1ec>
    }
  // printf("\n receive ACK-device address! \n");

   //set the txr reg data with reg address + 1 data MSB
   if (!Write32_Data( i2c_base, 3,sub_address)){
   206e0:	e0bffe03 	ldbu	r2,-8(fp)
   206e4:	100d883a 	mov	r6,r2
   206e8:	014000c4 	movi	r5,3
   206ec:	e13ffc17 	ldw	r4,-16(fp)
   206f0:	00202900 	call	20290 <Write32_Data>
   206f4:	1000051e 	bne	r2,zero,2070c <OC_I2C_Write+0xc8>
       printf("OC_I2C_Write error[3]\r\n");
   206f8:	010000f4 	movhi	r4,3
   206fc:	21119b04 	addi	r4,r4,18028
   20700:	002515c0 	call	2515c <puts>
       return FALSE;
   20704:	0005883a 	mov	r2,zero
   20708:	00004906 	br	20830 <OC_I2C_Write+0x1ec>
   }

   //set WR bits(bit4)
    if (!Write32_Data( i2c_base, 4,0x10)){
   2070c:	01800404 	movi	r6,16
   20710:	01400104 	movi	r5,4
   20714:	e13ffc17 	ldw	r4,-16(fp)
   20718:	00202900 	call	20290 <Write32_Data>
   2071c:	1000051e 	bne	r2,zero,20734 <OC_I2C_Write+0xf0>
        printf("OC_I2C_Write error[4]\r\n");
   20720:	010000f4 	movhi	r4,3
   20724:	2111a104 	addi	r4,r4,18052
   20728:	002515c0 	call	2515c <puts>
        return FALSE;
   2072c:	0005883a 	mov	r2,zero
   20730:	00003f06 	br	20830 <OC_I2C_Write+0x1ec>
    }

   //wait TIP bit go to 0 to end Tx
    if(!ACK_check( i2c_base)){
   20734:	e13ffc17 	ldw	r4,-16(fp)
   20738:	00205e40 	call	205e4 <ACK_check>
   2073c:	1000051e 	bne	r2,zero,20754 <OC_I2C_Write+0x110>
        printf("OC_I2C_Write error[5]\r\n");
   20740:	010000f4 	movhi	r4,3
   20744:	2111a704 	addi	r4,r4,18076
   20748:	002515c0 	call	2515c <puts>
        return FALSE;
   2074c:	0005883a 	mov	r2,zero
   20750:	00003706 	br	20830 <OC_I2C_Write+0x1ec>
    }
 //  printf("\n receive ACK-reg address! \n");

#if 1
        for( i=nWriteLength-1;i>=0;i--){
   20754:	e0800217 	ldw	r2,8(fp)
   20758:	10bfffc4 	addi	r2,r2,-1
   2075c:	e0bffb15 	stw	r2,-20(fp)
   20760:	00002406 	br	207f4 <OC_I2C_Write+0x1b0>
        //set the txr reg data with the data
          if (!Write32_Data( i2c_base, 3,*(pData+i))){
   20764:	e0bffb17 	ldw	r2,-20(fp)
   20768:	e0ffff17 	ldw	r3,-4(fp)
   2076c:	1885883a 	add	r2,r3,r2
   20770:	10800003 	ldbu	r2,0(r2)
   20774:	10803fcc 	andi	r2,r2,255
   20778:	100d883a 	mov	r6,r2
   2077c:	014000c4 	movi	r5,3
   20780:	e13ffc17 	ldw	r4,-16(fp)
   20784:	00202900 	call	20290 <Write32_Data>
   20788:	1000051e 	bne	r2,zero,207a0 <OC_I2C_Write+0x15c>
              printf("OC_I2C_Write error[6]\r\n");
   2078c:	010000f4 	movhi	r4,3
   20790:	2111ad04 	addi	r4,r4,18100
   20794:	002515c0 	call	2515c <puts>
              return FALSE;
   20798:	0005883a 	mov	r2,zero
   2079c:	00002406 	br	20830 <OC_I2C_Write+0x1ec>
          }

        //set STO and WR bits(bit7 and bit4)
         if (!Write32_Data( i2c_base, 4,0x10)){
   207a0:	01800404 	movi	r6,16
   207a4:	01400104 	movi	r5,4
   207a8:	e13ffc17 	ldw	r4,-16(fp)
   207ac:	00202900 	call	20290 <Write32_Data>
   207b0:	1000051e 	bne	r2,zero,207c8 <OC_I2C_Write+0x184>
             printf("OC_I2C_Write error[7]\r\n");
   207b4:	010000f4 	movhi	r4,3
   207b8:	2111b304 	addi	r4,r4,18124
   207bc:	002515c0 	call	2515c <puts>
              return FALSE;
   207c0:	0005883a 	mov	r2,zero
   207c4:	00001a06 	br	20830 <OC_I2C_Write+0x1ec>
         }

         //wait TIP bit go to 0 to end Tx
          if(!ACK_check( i2c_base)){
   207c8:	e13ffc17 	ldw	r4,-16(fp)
   207cc:	00205e40 	call	205e4 <ACK_check>
   207d0:	1000051e 	bne	r2,zero,207e8 <OC_I2C_Write+0x1a4>
              printf("OC_I2C_Write error[8]\r\n");
   207d4:	010000f4 	movhi	r4,3
   207d8:	2111b904 	addi	r4,r4,18148
   207dc:	002515c0 	call	2515c <puts>
              return FALSE;
   207e0:	0005883a 	mov	r2,zero
   207e4:	00001206 	br	20830 <OC_I2C_Write+0x1ec>
        return FALSE;
    }
 //  printf("\n receive ACK-reg address! \n");

#if 1
        for( i=nWriteLength-1;i>=0;i--){
   207e8:	e0bffb17 	ldw	r2,-20(fp)
   207ec:	10bfffc4 	addi	r2,r2,-1
   207f0:	e0bffb15 	stw	r2,-20(fp)
   207f4:	e0bffb17 	ldw	r2,-20(fp)
   207f8:	103fda0e 	bge	r2,zero,20764 <__alt_data_end+0xfffe0764>
   //wait TIP bit go to 0 to end Tx
    if(!ACK_check( i2c_base))
        return false;
#endif

     if (!Write32_Data( i2c_base, 4,0x40)){
   207fc:	01801004 	movi	r6,64
   20800:	01400104 	movi	r5,4
   20804:	e13ffc17 	ldw	r4,-16(fp)
   20808:	00202900 	call	20290 <Write32_Data>
   2080c:	1000051e 	bne	r2,zero,20824 <OC_I2C_Write+0x1e0>
         printf("OC_I2C_Write error[9]\r\n");
   20810:	010000f4 	movhi	r4,3
   20814:	2111bf04 	addi	r4,r4,18172
   20818:	002515c0 	call	2515c <puts>
         return FALSE;
   2081c:	0005883a 	mov	r2,zero
   20820:	00000306 	br	20830 <OC_I2C_Write+0x1ec>
     }
         //Sleep(10);
     //OS_msleep(1);
     usleep(SLEEP_TIME);
   20824:	01003e84 	movi	r4,250
   20828:	0031ed80 	call	31ed8 <usleep>

  // printf("\n receive ACK-data! \n");

     return TRUE;
   2082c:	00800044 	movi	r2,1

}
   20830:	e037883a 	mov	sp,fp
   20834:	dfc00117 	ldw	ra,4(sp)
   20838:	df000017 	ldw	fp,0(sp)
   2083c:	dec00204 	addi	sp,sp,8
   20840:	f800283a 	ret

00020844 <ACK_judge_for_read>:


bool ACK_judge_for_read(alt_32 i2c_base)
{
   20844:	defffb04 	addi	sp,sp,-20
   20848:	dfc00415 	stw	ra,16(sp)
   2084c:	df000315 	stw	fp,12(sp)
   20850:	df000304 	addi	fp,sp,12
   20854:	e13fff15 	stw	r4,-4(fp)
	bool bSuccess;
    alt_32 this_data;

   // OS_msleep( SLEEP_TIME );
     usleep(ACK_SLEEP_TIME);
   20858:	01003e84 	movi	r4,250
   2085c:	0031ed80 	call	31ed8 <usleep>
    //   while(this_data & 0x02)
//   {
//      this_data =  Read32_Data ( hPCIe, i2c_base, 4);
//   }
    bSuccess =  Read32_Data ( i2c_base, 4, &this_data);
   20860:	e0bffe04 	addi	r2,fp,-8
   20864:	100d883a 	mov	r6,r2
   20868:	01400104 	movi	r5,4
   2086c:	e13fff17 	ldw	r4,-4(fp)
   20870:	00202e80 	call	202e8 <Read32_Data>
   20874:	e0bffd15 	stw	r2,-12(fp)
    if (bSuccess){
   20878:	e0bffd17 	ldw	r2,-12(fp)
   2087c:	10000426 	beq	r2,zero,20890 <ACK_judge_for_read+0x4c>
        if(this_data & 0x02)
   20880:	e0bffe17 	ldw	r2,-8(fp)
   20884:	1080008c 	andi	r2,r2,2
   20888:	10000126 	beq	r2,zero,20890 <ACK_judge_for_read+0x4c>
            bSuccess = FALSE;
   2088c:	e03ffd15 	stw	zero,-12(fp)
    }
   //wait the rx ACK signal 0-valid

    return bSuccess;
   20890:	e0bffd17 	ldw	r2,-12(fp)

}
   20894:	e037883a 	mov	sp,fp
   20898:	dfc00117 	ldw	ra,4(sp)
   2089c:	df000017 	ldw	fp,0(sp)
   208a0:	dec00204 	addi	sp,sp,8
   208a4:	f800283a 	ret

000208a8 <OC_I2C_Read>:

bool  OC_I2C_Read(alt_32 i2c_base,alt_u8 device_address,alt_u8 sub_address, alt_u8 *pData8, int nReadLength){
   208a8:	defff804 	addi	sp,sp,-32
   208ac:	dfc00715 	stw	ra,28(sp)
   208b0:	df000615 	stw	fp,24(sp)
   208b4:	df000604 	addi	fp,sp,24
   208b8:	e13ffc15 	stw	r4,-16(fp)
   208bc:	2807883a 	mov	r3,r5
   208c0:	3005883a 	mov	r2,r6
   208c4:	e1ffff15 	stw	r7,-4(fp)
   208c8:	e0fffd05 	stb	r3,-12(fp)
   208cc:	e0bffe05 	stb	r2,-8(fp)
    //BYTE data = 0x0;
    alt_32 Data32;
    int i;

   //set the tx reg audio chip dev address with write bit
   IOWR( i2c_base, 3,device_address);
   208d0:	e0bffc17 	ldw	r2,-16(fp)
   208d4:	10800304 	addi	r2,r2,12
   208d8:	1007883a 	mov	r3,r2
   208dc:	e0bffd03 	ldbu	r2,-12(fp)
   208e0:	18800035 	stwio	r2,0(r3)
   //set STA and WR bits(bit7 and bit4)
   IOWR( i2c_base, 4,0x90);
   208e4:	e0bffc17 	ldw	r2,-16(fp)
   208e8:	10800404 	addi	r2,r2,16
   208ec:	1007883a 	mov	r3,r2
   208f0:	00802404 	movi	r2,144
   208f4:	18800035 	stwio	r2,0(r3)
   //wait TIP bit go to 0 to end Tx
   if (!ACK_check( i2c_base)){
   208f8:	e13ffc17 	ldw	r4,-16(fp)
   208fc:	00205e40 	call	205e4 <ACK_check>
   20900:	1000051e 	bne	r2,zero,20918 <OC_I2C_Read+0x70>
       printf("OC_I2C_Read error[2]\r\n");
   20904:	010000f4 	movhi	r4,3
   20908:	2111c504 	addi	r4,r4,18196
   2090c:	002515c0 	call	2515c <puts>
       return FALSE;
   20910:	0005883a 	mov	r2,zero
   20914:	00005206 	br	20a60 <OC_I2C_Read+0x1b8>
   }
   IOWR(i2c_base, 3,sub_address);
   20918:	e0bffc17 	ldw	r2,-16(fp)
   2091c:	10800304 	addi	r2,r2,12
   20920:	1007883a 	mov	r3,r2
   20924:	e0bffe03 	ldbu	r2,-8(fp)
   20928:	18800035 	stwio	r2,0(r3)

   //set WR bits(bit4)
   IOWR( i2c_base, 4,0x10);
   2092c:	e0bffc17 	ldw	r2,-16(fp)
   20930:	10800404 	addi	r2,r2,16
   20934:	1007883a 	mov	r3,r2
   20938:	00800404 	movi	r2,16
   2093c:	18800035 	stwio	r2,0(r3)
   //wait TIP bit go to 0 to end Tx
    if (!ACK_check( i2c_base)){
   20940:	e13ffc17 	ldw	r4,-16(fp)
   20944:	00205e40 	call	205e4 <ACK_check>
   20948:	1000051e 	bne	r2,zero,20960 <OC_I2C_Read+0xb8>
        printf("OC_I2C_Read error[5]\r\n");
   2094c:	010000f4 	movhi	r4,3
   20950:	2111cb04 	addi	r4,r4,18220
   20954:	002515c0 	call	2515c <puts>
        return FALSE;
   20958:	0005883a 	mov	r2,zero
   2095c:	00004006 	br	20a60 <OC_I2C_Read+0x1b8>
  // printf("\n read receive ACK-reg address! \n");

   //read
    //set the tx reg audio chip dev address with read bit 1

    IOWR(i2c_base, 3,device_address|0x01);
   20960:	e0bffc17 	ldw	r2,-16(fp)
   20964:	10800304 	addi	r2,r2,12
   20968:	1007883a 	mov	r3,r2
   2096c:	e0bffd03 	ldbu	r2,-12(fp)
   20970:	10800054 	ori	r2,r2,1
   20974:	10803fcc 	andi	r2,r2,255
   20978:	18800035 	stwio	r2,0(r3)

   //set STA and WR bits(bit7 and bit4)
    IOWR( i2c_base, 4,0x90);
   2097c:	e0bffc17 	ldw	r2,-16(fp)
   20980:	10800404 	addi	r2,r2,16
   20984:	1007883a 	mov	r3,r2
   20988:	00802404 	movi	r2,144
   2098c:	18800035 	stwio	r2,0(r3)

   //wait TIP bit go to 0 to end Tx
    if (!ACK_check( i2c_base)){
   20990:	e13ffc17 	ldw	r4,-16(fp)
   20994:	00205e40 	call	205e4 <ACK_check>
   20998:	1000051e 	bne	r2,zero,209b0 <OC_I2C_Read+0x108>
        printf("OC_I2C_Read error[8]\r\n");
   2099c:	010000f4 	movhi	r4,3
   209a0:	2111d104 	addi	r4,r4,18244
   209a4:	002515c0 	call	2515c <puts>
        return FALSE;
   209a8:	0005883a 	mov	r2,zero
   209ac:	00002c06 	br	20a60 <OC_I2C_Read+0x1b8>
    }

    for(i=0;i<nReadLength;i++){
   209b0:	e03ffa15 	stw	zero,-24(fp)
   209b4:	00001f06 	br	20a34 <OC_I2C_Read+0x18c>
  // printf("\n read receive ACK-device address(read)! \n");
   //set the RD and ACK bit(bit5 and bit3)
    	IOWR( i2c_base, 4,((i+1) == nReadLength)?0x28:0x20);
   209b8:	e0bffc17 	ldw	r2,-16(fp)
   209bc:	10800404 	addi	r2,r2,16
   209c0:	1009883a 	mov	r4,r2
   209c4:	e0bffa17 	ldw	r2,-24(fp)
   209c8:	10c00044 	addi	r3,r2,1
   209cc:	e0800217 	ldw	r2,8(fp)
   209d0:	1880021e 	bne	r3,r2,209dc <OC_I2C_Read+0x134>
   209d4:	00800a04 	movi	r2,40
   209d8:	00000106 	br	209e0 <OC_I2C_Read+0x138>
   209dc:	00800804 	movi	r2,32
   209e0:	20800035 	stwio	r2,0(r4)

        if (!ACK_judge_for_read( i2c_base)){
   209e4:	e13ffc17 	ldw	r4,-16(fp)
   209e8:	00208440 	call	20844 <ACK_judge_for_read>
   209ec:	1000051e 	bne	r2,zero,20a04 <OC_I2C_Read+0x15c>
            printf("OC_I2C_Read error[10]\r\n");
   209f0:	010000f4 	movhi	r4,3
   209f4:	2111d704 	addi	r4,r4,18268
   209f8:	002515c0 	call	2515c <puts>
            return FALSE;
   209fc:	0005883a 	mov	r2,zero
   20a00:	00001706 	br	20a60 <OC_I2C_Read+0x1b8>
        }
   // printf("\n read receive ACK-device address(read)! \n");

        Data32=IORD( i2c_base, 3);
   20a04:	e0bffc17 	ldw	r2,-16(fp)
   20a08:	10800304 	addi	r2,r2,12
   20a0c:	10800037 	ldwio	r2,0(r2)
   20a10:	e0bffb15 	stw	r2,-20(fp)
        *(pData8+i) =  Data32 & 0xff;
   20a14:	e0bffa17 	ldw	r2,-24(fp)
   20a18:	e0ffff17 	ldw	r3,-4(fp)
   20a1c:	1885883a 	add	r2,r3,r2
   20a20:	e0fffb17 	ldw	r3,-20(fp)
   20a24:	10c00005 	stb	r3,0(r2)
    if (!ACK_check( i2c_base)){
        printf("OC_I2C_Read error[8]\r\n");
        return FALSE;
    }

    for(i=0;i<nReadLength;i++){
   20a28:	e0bffa17 	ldw	r2,-24(fp)
   20a2c:	10800044 	addi	r2,r2,1
   20a30:	e0bffa15 	stw	r2,-24(fp)
   20a34:	e0fffa17 	ldw	r3,-24(fp)
   20a38:	e0800217 	ldw	r2,8(fp)
   20a3c:	18bfde16 	blt	r3,r2,209b8 <__alt_data_end+0xfffe09b8>

        Data32=IORD( i2c_base, 3);
        *(pData8+i) =  Data32 & 0xff;
    }

    IOWR( i2c_base, 4,0x40);
   20a40:	e0bffc17 	ldw	r2,-16(fp)
   20a44:	10800404 	addi	r2,r2,16
   20a48:	1007883a 	mov	r3,r2
   20a4c:	00801004 	movi	r2,64
   20a50:	18800035 	stwio	r2,0(r3)

  // Sleep(10);
   //OS_msleep(1);
    usleep(SLEEP_TIME);
   20a54:	01003e84 	movi	r4,250
   20a58:	0031ed80 	call	31ed8 <usleep>
 //  printf(" Read  [%02X] = %02Xh\r\n", sub_address, data);


   return TRUE;
   20a5c:	00800044 	movi	r2,1

}
   20a60:	e037883a 	mov	sp,fp
   20a64:	dfc00117 	ldw	ra,4(sp)
   20a68:	df000017 	ldw	fp,0(sp)
   20a6c:	dec00204 	addi	sp,sp,8
   20a70:	f800283a 	ret

00020a74 <OC_I2C_Read_Continue>:


bool  OC_I2C_Read_Continue(alt_32 i2c_base,alt_u8 device_address, alt_u8 *pData8, int nReadLength){
   20a74:	defff804 	addi	sp,sp,-32
   20a78:	dfc00715 	stw	ra,28(sp)
   20a7c:	df000615 	stw	fp,24(sp)
   20a80:	df000604 	addi	fp,sp,24
   20a84:	e13ffc15 	stw	r4,-16(fp)
   20a88:	2805883a 	mov	r2,r5
   20a8c:	e1bffe15 	stw	r6,-8(fp)
   20a90:	e1ffff15 	stw	r7,-4(fp)
   20a94:	e0bffd05 	stb	r2,-12(fp)
	int i;
	alt_u32 Data32;

    IOWR(i2c_base, 3,device_address|0x01);
   20a98:	e0bffc17 	ldw	r2,-16(fp)
   20a9c:	10800304 	addi	r2,r2,12
   20aa0:	1007883a 	mov	r3,r2
   20aa4:	e0bffd03 	ldbu	r2,-12(fp)
   20aa8:	10800054 	ori	r2,r2,1
   20aac:	10803fcc 	andi	r2,r2,255
   20ab0:	18800035 	stwio	r2,0(r3)

   //set STA and WR bits(bit7 and bit4)
    IOWR( i2c_base, 4,0x90);
   20ab4:	e0bffc17 	ldw	r2,-16(fp)
   20ab8:	10800404 	addi	r2,r2,16
   20abc:	1007883a 	mov	r3,r2
   20ac0:	00802404 	movi	r2,144
   20ac4:	18800035 	stwio	r2,0(r3)
//usleep(5*1000);
   //wait TIP bit go to 0 to end Tx
    if (!ACK_check( i2c_base)){
   20ac8:	e13ffc17 	ldw	r4,-16(fp)
   20acc:	00205e40 	call	205e4 <ACK_check>
   20ad0:	1000051e 	bne	r2,zero,20ae8 <OC_I2C_Read_Continue+0x74>
        printf("OC_I2C_Read error[8]\r\n");
   20ad4:	010000f4 	movhi	r4,3
   20ad8:	2111d104 	addi	r4,r4,18244
   20adc:	002515c0 	call	2515c <puts>
        return FALSE;
   20ae0:	0005883a 	mov	r2,zero
   20ae4:	00002c06 	br	20b98 <OC_I2C_Read_Continue+0x124>
    }

    for(i=0;i<nReadLength;i++){
   20ae8:	e03ffa15 	stw	zero,-24(fp)
   20aec:	00001f06 	br	20b6c <OC_I2C_Read_Continue+0xf8>
  // printf("\n read receive ACK-device address(read)! \n");
   //set the RD and ACK bit(bit5 and bit3)
    	IOWR( i2c_base, 4,((i+1) == nReadLength)?0x28:0x20);
   20af0:	e0bffc17 	ldw	r2,-16(fp)
   20af4:	10800404 	addi	r2,r2,16
   20af8:	1009883a 	mov	r4,r2
   20afc:	e0bffa17 	ldw	r2,-24(fp)
   20b00:	10c00044 	addi	r3,r2,1
   20b04:	e0bfff17 	ldw	r2,-4(fp)
   20b08:	1880021e 	bne	r3,r2,20b14 <OC_I2C_Read_Continue+0xa0>
   20b0c:	00800a04 	movi	r2,40
   20b10:	00000106 	br	20b18 <OC_I2C_Read_Continue+0xa4>
   20b14:	00800804 	movi	r2,32
   20b18:	20800035 	stwio	r2,0(r4)

        if (!ACK_judge_for_read( i2c_base)){
   20b1c:	e13ffc17 	ldw	r4,-16(fp)
   20b20:	00208440 	call	20844 <ACK_judge_for_read>
   20b24:	1000051e 	bne	r2,zero,20b3c <OC_I2C_Read_Continue+0xc8>
            printf("OC_I2C_Read error[10]\r\n");
   20b28:	010000f4 	movhi	r4,3
   20b2c:	2111d704 	addi	r4,r4,18268
   20b30:	002515c0 	call	2515c <puts>
            return FALSE;
   20b34:	0005883a 	mov	r2,zero
   20b38:	00001706 	br	20b98 <OC_I2C_Read_Continue+0x124>
        }
   // printf("\n read receive ACK-device address(read)! \n");

        Data32=IORD( i2c_base, 3);
   20b3c:	e0bffc17 	ldw	r2,-16(fp)
   20b40:	10800304 	addi	r2,r2,12
   20b44:	10800037 	ldwio	r2,0(r2)
   20b48:	e0bffb15 	stw	r2,-20(fp)
        *(pData8+i) =  Data32 & 0xff;
   20b4c:	e0bffa17 	ldw	r2,-24(fp)
   20b50:	e0fffe17 	ldw	r3,-8(fp)
   20b54:	1885883a 	add	r2,r3,r2
   20b58:	e0fffb17 	ldw	r3,-20(fp)
   20b5c:	10c00005 	stb	r3,0(r2)
    if (!ACK_check( i2c_base)){
        printf("OC_I2C_Read error[8]\r\n");
        return FALSE;
    }

    for(i=0;i<nReadLength;i++){
   20b60:	e0bffa17 	ldw	r2,-24(fp)
   20b64:	10800044 	addi	r2,r2,1
   20b68:	e0bffa15 	stw	r2,-24(fp)
   20b6c:	e0fffa17 	ldw	r3,-24(fp)
   20b70:	e0bfff17 	ldw	r2,-4(fp)
   20b74:	18bfde16 	blt	r3,r2,20af0 <__alt_data_end+0xfffe0af0>

        Data32=IORD( i2c_base, 3);
        *(pData8+i) =  Data32 & 0xff;
    }

    IOWR( i2c_base, 4,0x40);
   20b78:	e0bffc17 	ldw	r2,-16(fp)
   20b7c:	10800404 	addi	r2,r2,16
   20b80:	1007883a 	mov	r3,r2
   20b84:	00801004 	movi	r2,64
   20b88:	18800035 	stwio	r2,0(r3)

  // Sleep(10);
   //OS_msleep(1);
    usleep(SLEEP_TIME);
   20b8c:	01003e84 	movi	r4,250
   20b90:	0031ed80 	call	31ed8 <usleep>
 //  printf(" Read  [%02X] = %02Xh\r\n", sub_address, data);


   return TRUE;
   20b94:	00800044 	movi	r2,1

}
   20b98:	e037883a 	mov	sp,fp
   20b9c:	dfc00117 	ldw	ra,4(sp)
   20ba0:	df000017 	ldw	fp,0(sp)
   20ba4:	dec00204 	addi	sp,sp,8
   20ba8:	f800283a 	ret

00020bac <OC_I2CL_Write>:


//  size > 2Kb
bool  OC_I2CL_Write(alt_32 i2c_base,alt_u8 device_address,alt_u16 sub_address,alt_u8 *pData, int nWriteLength)
    {
   20bac:	defff804 	addi	sp,sp,-32
   20bb0:	dfc00715 	stw	ra,28(sp)
   20bb4:	df000615 	stw	fp,24(sp)
   20bb8:	df000604 	addi	fp,sp,24
   20bbc:	e13ffc15 	stw	r4,-16(fp)
   20bc0:	2807883a 	mov	r3,r5
   20bc4:	3005883a 	mov	r2,r6
   20bc8:	e1ffff15 	stw	r7,-4(fp)
   20bcc:	e0fffd05 	stb	r3,-12(fp)
   20bd0:	e0bffe0d 	sth	r2,-8(fp)
    //DWORD reg_data = 0x0;
	alt_u8 AddrHigh, AddrLow;
    //int count= 0;

    AddrHigh = (sub_address >> 8) & 0xFF;
   20bd4:	e0bffe0b 	ldhu	r2,-8(fp)
   20bd8:	1004d23a 	srli	r2,r2,8
   20bdc:	e0bffb05 	stb	r2,-20(fp)
    AddrLow  = sub_address & 0xFF;
   20be0:	e0bffe0b 	ldhu	r2,-8(fp)
   20be4:	e0bffb45 	stb	r2,-19(fp)

    int i;

    //set the tx reg audio chip dev address with write bit
   if (!Write32_Data( i2c_base, 3,device_address))
   20be8:	e0bffd03 	ldbu	r2,-12(fp)
   20bec:	100d883a 	mov	r6,r2
   20bf0:	014000c4 	movi	r5,3
   20bf4:	e13ffc17 	ldw	r4,-16(fp)
   20bf8:	00202900 	call	20290 <Write32_Data>
   20bfc:	1000021e 	bne	r2,zero,20c08 <OC_I2CL_Write+0x5c>
       return FALSE;
   20c00:	0005883a 	mov	r2,zero
   20c04:	00006806 	br	20da8 <OC_I2CL_Write+0x1fc>
   //set STA and WR bits(bit7 and bit4)
   if (!Write32_Data( i2c_base, 4,0x90))//0x90
   20c08:	01802404 	movi	r6,144
   20c0c:	01400104 	movi	r5,4
   20c10:	e13ffc17 	ldw	r4,-16(fp)
   20c14:	00202900 	call	20290 <Write32_Data>
   20c18:	1000021e 	bne	r2,zero,20c24 <OC_I2CL_Write+0x78>
       return FALSE;
   20c1c:	0005883a 	mov	r2,zero
   20c20:	00006106 	br	20da8 <OC_I2CL_Write+0x1fc>

   //wait TIP bit go to 0 to end Tx
    if(!ACK_check( i2c_base)){
   20c24:	e13ffc17 	ldw	r4,-16(fp)
   20c28:	00205e40 	call	205e4 <ACK_check>
   20c2c:	1000051e 	bne	r2,zero,20c44 <OC_I2CL_Write+0x98>
        printf("OC_I2CL_Write error[0]\r\n");
   20c30:	010000f4 	movhi	r4,3
   20c34:	2111dd04 	addi	r4,r4,18292
   20c38:	002515c0 	call	2515c <puts>
        return FALSE;
   20c3c:	0005883a 	mov	r2,zero
   20c40:	00005906 	br	20da8 <OC_I2CL_Write+0x1fc>
  // printf("\n receive ACK-device address! \n");

   //set the txr reg data with reg address + 1 data MSB
 //  reg_data  = (sub_address << 1) & 0xFE;
   //reg_data |= ((data >> 8) & 0x01);
   if (!Write32_Data( i2c_base, 3,AddrHigh))//reg_data&0xff);
   20c44:	e0bffb03 	ldbu	r2,-20(fp)
   20c48:	100d883a 	mov	r6,r2
   20c4c:	014000c4 	movi	r5,3
   20c50:	e13ffc17 	ldw	r4,-16(fp)
   20c54:	00202900 	call	20290 <Write32_Data>
   20c58:	1000021e 	bne	r2,zero,20c64 <OC_I2CL_Write+0xb8>
       return FALSE;
   20c5c:	0005883a 	mov	r2,zero
   20c60:	00005106 	br	20da8 <OC_I2CL_Write+0x1fc>

   //set WR bits(bit4)
    if (!Write32_Data( i2c_base, 4,0x10))
   20c64:	01800404 	movi	r6,16
   20c68:	01400104 	movi	r5,4
   20c6c:	e13ffc17 	ldw	r4,-16(fp)
   20c70:	00202900 	call	20290 <Write32_Data>
   20c74:	1000021e 	bne	r2,zero,20c80 <OC_I2CL_Write+0xd4>
        return FALSE;
   20c78:	0005883a 	mov	r2,zero
   20c7c:	00004a06 	br	20da8 <OC_I2CL_Write+0x1fc>

   //wait TIP bit go to 0 to end Tx
    if(!ACK_check( i2c_base)){
   20c80:	e13ffc17 	ldw	r4,-16(fp)
   20c84:	00205e40 	call	205e4 <ACK_check>
   20c88:	1000051e 	bne	r2,zero,20ca0 <OC_I2CL_Write+0xf4>
        printf("OC_I2CL_Write error[1]\r\n");
   20c8c:	010000f4 	movhi	r4,3
   20c90:	2111e304 	addi	r4,r4,18316
   20c94:	002515c0 	call	2515c <puts>
        return FALSE;
   20c98:	0005883a 	mov	r2,zero
   20c9c:	00004206 	br	20da8 <OC_I2CL_Write+0x1fc>
    }
  // printf("\n receive ACK-reg high address! \n");

   //set the txr reg data with reg address + 1 data MSB
   if (!Write32_Data( i2c_base, 3,AddrLow))//reg_data&0xff);
   20ca0:	e0bffb43 	ldbu	r2,-19(fp)
   20ca4:	100d883a 	mov	r6,r2
   20ca8:	014000c4 	movi	r5,3
   20cac:	e13ffc17 	ldw	r4,-16(fp)
   20cb0:	00202900 	call	20290 <Write32_Data>
   20cb4:	1000021e 	bne	r2,zero,20cc0 <OC_I2CL_Write+0x114>
       return FALSE;
   20cb8:	0005883a 	mov	r2,zero
   20cbc:	00003a06 	br	20da8 <OC_I2CL_Write+0x1fc>

   //set WR bits(bit4)
    Write32_Data( i2c_base, 4,0x10);
   20cc0:	01800404 	movi	r6,16
   20cc4:	01400104 	movi	r5,4
   20cc8:	e13ffc17 	ldw	r4,-16(fp)
   20ccc:	00202900 	call	20290 <Write32_Data>

   //wait TIP bit go to 0 to end Tx
    if(!ACK_check( i2c_base)){
   20cd0:	e13ffc17 	ldw	r4,-16(fp)
   20cd4:	00205e40 	call	205e4 <ACK_check>
   20cd8:	1000051e 	bne	r2,zero,20cf0 <OC_I2CL_Write+0x144>
        printf("OC_I2CL_Write error[2]\r\n");
   20cdc:	010000f4 	movhi	r4,3
   20ce0:	2111e904 	addi	r4,r4,18340
   20ce4:	002515c0 	call	2515c <puts>
        return FALSE;
   20ce8:	0005883a 	mov	r2,zero
   20cec:	00002e06 	br	20da8 <OC_I2CL_Write+0x1fc>
    }
  //  printf("\n receive ACK-reg low address! \n");

#if 1
    for( i=nWriteLength-1;i>=0;i--){
   20cf0:	e0800217 	ldw	r2,8(fp)
   20cf4:	10bfffc4 	addi	r2,r2,-1
   20cf8:	e0bffa15 	stw	r2,-24(fp)
   20cfc:	00001e06 	br	20d78 <OC_I2CL_Write+0x1cc>
        //set the txr reg data with the other data 8 bit LSB
        if (!Write32_Data( i2c_base, 3,*(pData+i)))
   20d00:	e0bffa17 	ldw	r2,-24(fp)
   20d04:	e0ffff17 	ldw	r3,-4(fp)
   20d08:	1885883a 	add	r2,r3,r2
   20d0c:	10800003 	ldbu	r2,0(r2)
   20d10:	10803fcc 	andi	r2,r2,255
   20d14:	100d883a 	mov	r6,r2
   20d18:	014000c4 	movi	r5,3
   20d1c:	e13ffc17 	ldw	r4,-16(fp)
   20d20:	00202900 	call	20290 <Write32_Data>
   20d24:	1000021e 	bne	r2,zero,20d30 <OC_I2CL_Write+0x184>
            return FALSE;
   20d28:	0005883a 	mov	r2,zero
   20d2c:	00001e06 	br	20da8 <OC_I2CL_Write+0x1fc>

       //set STO and WR bits(bit7 and bit4)
        if (!Write32_Data( i2c_base, 4,0x10))
   20d30:	01800404 	movi	r6,16
   20d34:	01400104 	movi	r5,4
   20d38:	e13ffc17 	ldw	r4,-16(fp)
   20d3c:	00202900 	call	20290 <Write32_Data>
   20d40:	1000021e 	bne	r2,zero,20d4c <OC_I2CL_Write+0x1a0>
            return FALSE;
   20d44:	0005883a 	mov	r2,zero
   20d48:	00001706 	br	20da8 <OC_I2CL_Write+0x1fc>

        //wait TIP bit go to 0 to end Tx
         if(!ACK_check( i2c_base)){
   20d4c:	e13ffc17 	ldw	r4,-16(fp)
   20d50:	00205e40 	call	205e4 <ACK_check>
   20d54:	1000051e 	bne	r2,zero,20d6c <OC_I2CL_Write+0x1c0>
             printf("OC_I2CL_Write error[3]\r\n");
   20d58:	010000f4 	movhi	r4,3
   20d5c:	2111ef04 	addi	r4,r4,18364
   20d60:	002515c0 	call	2515c <puts>
             return FALSE;
   20d64:	0005883a 	mov	r2,zero
   20d68:	00000f06 	br	20da8 <OC_I2CL_Write+0x1fc>
        return FALSE;
    }
  //  printf("\n receive ACK-reg low address! \n");

#if 1
    for( i=nWriteLength-1;i>=0;i--){
   20d6c:	e0bffa17 	ldw	r2,-24(fp)
   20d70:	10bfffc4 	addi	r2,r2,-1
   20d74:	e0bffa15 	stw	r2,-24(fp)
   20d78:	e0bffa17 	ldw	r2,-24(fp)
   20d7c:	103fe00e 	bge	r2,zero,20d00 <__alt_data_end+0xfffe0d00>
   //wait TIP bit go to 0 to end Tx
    if(!ACK_check( i2c_base))
        return FALSE;

#endif
    if (!Write32_Data( i2c_base, 4,0x40))
   20d80:	01801004 	movi	r6,64
   20d84:	01400104 	movi	r5,4
   20d88:	e13ffc17 	ldw	r4,-16(fp)
   20d8c:	00202900 	call	20290 <Write32_Data>
   20d90:	1000021e 	bne	r2,zero,20d9c <OC_I2CL_Write+0x1f0>
         return FALSE;
   20d94:	0005883a 	mov	r2,zero
   20d98:	00000306 	br	20da8 <OC_I2CL_Write+0x1fc>

     //OS_msleep(1);
      usleep(SLEEP_TIME);
   20d9c:	01003e84 	movi	r4,250
   20da0:	0031ed80 	call	31ed8 <usleep>
  //  printf("\n receive ACK-data! \n");

     return TRUE;
   20da4:	00800044 	movi	r2,1
}
   20da8:	e037883a 	mov	sp,fp
   20dac:	dfc00117 	ldw	ra,4(sp)
   20db0:	df000017 	ldw	fp,0(sp)
   20db4:	dec00204 	addi	sp,sp,8
   20db8:	f800283a 	ret

00020dbc <OC_I2CL_Read>:

   return TRUE;

} */

bool  OC_I2CL_Read(alt_32 i2c_base,alt_u8 device_address, alt_u16 sub_address, alt_u8 *pData8, int nReadLength){
   20dbc:	defff704 	addi	sp,sp,-36
   20dc0:	dfc00815 	stw	ra,32(sp)
   20dc4:	df000715 	stw	fp,28(sp)
   20dc8:	df000704 	addi	fp,sp,28
   20dcc:	e13ffc15 	stw	r4,-16(fp)
   20dd0:	2807883a 	mov	r3,r5
   20dd4:	3005883a 	mov	r2,r6
   20dd8:	e1ffff15 	stw	r7,-4(fp)
   20ddc:	e0fffd05 	stb	r3,-12(fp)
   20de0:	e0bffe0d 	sth	r2,-8(fp)
    int i;

    alt_u8 AddrHigh, AddrLow;
    alt_u8 DataHigh, DataLow;

    AddrHigh = (sub_address >> 8) & 0xFF;
   20de4:	e0bffe0b 	ldhu	r2,-8(fp)
   20de8:	1004d23a 	srli	r2,r2,8
   20dec:	e0bffa05 	stb	r2,-24(fp)
    AddrLow  = sub_address & 0xFF;
   20df0:	e0bffe0b 	ldhu	r2,-8(fp)
   20df4:	e0bffa45 	stb	r2,-23(fp)


   //set the tx reg audio chip dev address with write bit
   if (!Write32_Data( i2c_base, 3,device_address))
   20df8:	e0bffd03 	ldbu	r2,-12(fp)
   20dfc:	100d883a 	mov	r6,r2
   20e00:	014000c4 	movi	r5,3
   20e04:	e13ffc17 	ldw	r4,-16(fp)
   20e08:	00202900 	call	20290 <Write32_Data>
   20e0c:	1000021e 	bne	r2,zero,20e18 <OC_I2CL_Read+0x5c>
       return FALSE;
   20e10:	0005883a 	mov	r2,zero
   20e14:	00008406 	br	21028 <OC_I2CL_Read+0x26c>

   //set STA and WR bits(bit7 and bit4)
   if (!Write32_Data( i2c_base, 4,0x90))
   20e18:	01802404 	movi	r6,144
   20e1c:	01400104 	movi	r5,4
   20e20:	e13ffc17 	ldw	r4,-16(fp)
   20e24:	00202900 	call	20290 <Write32_Data>
   20e28:	1000021e 	bne	r2,zero,20e34 <OC_I2CL_Read+0x78>
       return FALSE;
   20e2c:	0005883a 	mov	r2,zero
   20e30:	00007d06 	br	21028 <OC_I2CL_Read+0x26c>

   //wait TIP bit go to 0 to end Tx
    if(!ACK_check( i2c_base)){
   20e34:	e13ffc17 	ldw	r4,-16(fp)
   20e38:	00205e40 	call	205e4 <ACK_check>
   20e3c:	1000051e 	bne	r2,zero,20e54 <OC_I2CL_Read+0x98>
        printf("OC_I2CL_Read error[0]\r\n");
   20e40:	010000f4 	movhi	r4,3
   20e44:	2111f504 	addi	r4,r4,18388
   20e48:	002515c0 	call	2515c <puts>
        return FALSE;
   20e4c:	0005883a 	mov	r2,zero
   20e50:	00007506 	br	21028 <OC_I2CL_Read+0x26c>
 //  printf("\n receive ACK-device address! \n");


   //set the txr reg data with reg address + 0

   if (!Write32_Data( i2c_base, 3,AddrHigh))//reg_data&0xff);
   20e54:	e0bffa03 	ldbu	r2,-24(fp)
   20e58:	100d883a 	mov	r6,r2
   20e5c:	014000c4 	movi	r5,3
   20e60:	e13ffc17 	ldw	r4,-16(fp)
   20e64:	00202900 	call	20290 <Write32_Data>
   20e68:	1000021e 	bne	r2,zero,20e74 <OC_I2CL_Read+0xb8>
       return FALSE;
   20e6c:	0005883a 	mov	r2,zero
   20e70:	00006d06 	br	21028 <OC_I2CL_Read+0x26c>

   //set WR bits(bit4)
    if (!Write32_Data( i2c_base, 4,0x10))
   20e74:	01800404 	movi	r6,16
   20e78:	01400104 	movi	r5,4
   20e7c:	e13ffc17 	ldw	r4,-16(fp)
   20e80:	00202900 	call	20290 <Write32_Data>
   20e84:	1000021e 	bne	r2,zero,20e90 <OC_I2CL_Read+0xd4>
        return FALSE;
   20e88:	0005883a 	mov	r2,zero
   20e8c:	00006606 	br	21028 <OC_I2CL_Read+0x26c>

   //wait TIP bit go to 0 to end Tx
    if(!ACK_check( i2c_base)){
   20e90:	e13ffc17 	ldw	r4,-16(fp)
   20e94:	00205e40 	call	205e4 <ACK_check>
   20e98:	1000051e 	bne	r2,zero,20eb0 <OC_I2CL_Read+0xf4>
        printf("OC_I2CL_Read error[1]\r\n");
   20e9c:	010000f4 	movhi	r4,3
   20ea0:	2111fb04 	addi	r4,r4,18412
   20ea4:	002515c0 	call	2515c <puts>
        return FALSE;
   20ea8:	0005883a 	mov	r2,zero
   20eac:	00005e06 	br	21028 <OC_I2CL_Read+0x26c>
    }
//   printf("\n read receive ACK-reg High address! \n");

     //set the txr reg data with reg address + 0
   if (!Write32_Data( i2c_base, 3,AddrLow)) //;//reg_data&0xff);
   20eb0:	e0bffa43 	ldbu	r2,-23(fp)
   20eb4:	100d883a 	mov	r6,r2
   20eb8:	014000c4 	movi	r5,3
   20ebc:	e13ffc17 	ldw	r4,-16(fp)
   20ec0:	00202900 	call	20290 <Write32_Data>
   20ec4:	1000021e 	bne	r2,zero,20ed0 <OC_I2CL_Read+0x114>
       return FALSE;
   20ec8:	0005883a 	mov	r2,zero
   20ecc:	00005606 	br	21028 <OC_I2CL_Read+0x26c>
   //set WR bits(bit4)
    if (!Write32_Data( i2c_base, 4,0x10))
   20ed0:	01800404 	movi	r6,16
   20ed4:	01400104 	movi	r5,4
   20ed8:	e13ffc17 	ldw	r4,-16(fp)
   20edc:	00202900 	call	20290 <Write32_Data>
   20ee0:	1000021e 	bne	r2,zero,20eec <OC_I2CL_Read+0x130>
        return FALSE;
   20ee4:	0005883a 	mov	r2,zero
   20ee8:	00004f06 	br	21028 <OC_I2CL_Read+0x26c>

   //wait TIP bit go to 0 to end Tx
    if(!ACK_check( i2c_base)){
   20eec:	e13ffc17 	ldw	r4,-16(fp)
   20ef0:	00205e40 	call	205e4 <ACK_check>
   20ef4:	1000051e 	bne	r2,zero,20f0c <OC_I2CL_Read+0x150>
        printf("OC_I2CL_Read error[2]\r\n");
   20ef8:	010000f4 	movhi	r4,3
   20efc:	21120104 	addi	r4,r4,18436
   20f00:	002515c0 	call	2515c <puts>
        return FALSE;
   20f04:	0005883a 	mov	r2,zero
   20f08:	00004706 	br	21028 <OC_I2CL_Read+0x26c>

 //  printf("\n read receive ACK-reg Low address! \n");

   //read
    //set the tx reg audio chip dev address with read bit 1
     if (!Write32_Data( i2c_base, 3,device_address|0x01))
   20f0c:	e0bffd03 	ldbu	r2,-12(fp)
   20f10:	10800054 	ori	r2,r2,1
   20f14:	10803fcc 	andi	r2,r2,255
   20f18:	100d883a 	mov	r6,r2
   20f1c:	014000c4 	movi	r5,3
   20f20:	e13ffc17 	ldw	r4,-16(fp)
   20f24:	00202900 	call	20290 <Write32_Data>
   20f28:	1000021e 	bne	r2,zero,20f34 <OC_I2CL_Read+0x178>
         return FALSE;
   20f2c:	0005883a 	mov	r2,zero
   20f30:	00003d06 	br	21028 <OC_I2CL_Read+0x26c>

   //set STA and WR bits(bit7 and bit4)
     if (!Write32_Data( i2c_base, 4,0x90))
   20f34:	01802404 	movi	r6,144
   20f38:	01400104 	movi	r5,4
   20f3c:	e13ffc17 	ldw	r4,-16(fp)
   20f40:	00202900 	call	20290 <Write32_Data>
   20f44:	1000021e 	bne	r2,zero,20f50 <OC_I2CL_Read+0x194>
         return FALSE;
   20f48:	0005883a 	mov	r2,zero
   20f4c:	00003606 	br	21028 <OC_I2CL_Read+0x26c>

   //wait TIP bit go to 0 to end Tx
    if(!ACK_check( i2c_base)){
   20f50:	e13ffc17 	ldw	r4,-16(fp)
   20f54:	00205e40 	call	205e4 <ACK_check>
   20f58:	1000051e 	bne	r2,zero,20f70 <OC_I2CL_Read+0x1b4>
        printf("OC_I2CL_Read error[3]\r\n");
   20f5c:	010000f4 	movhi	r4,3
   20f60:	21120704 	addi	r4,r4,18460
   20f64:	002515c0 	call	2515c <puts>
        return FALSE;
   20f68:	0005883a 	mov	r2,zero
   20f6c:	00002e06 	br	21028 <OC_I2CL_Read+0x26c>
//   printf("\n read receive ACK-device address(read)! \n");

       //read the rxr data

#if 1
    for(i=0;i<nReadLength;i++){
   20f70:	e03ff915 	stw	zero,-28(fp)
   20f74:	00001f06 	br	20ff4 <OC_I2CL_Read+0x238>
  // printf("\n read receive ACK-device address(read)! \n");
   //set the RD and ACK bit(bit5 and bit3)
    	IOWR( i2c_base, 4,((i+1) == nReadLength)?0x28:0x20);
   20f78:	e0bffc17 	ldw	r2,-16(fp)
   20f7c:	10800404 	addi	r2,r2,16
   20f80:	1009883a 	mov	r4,r2
   20f84:	e0bff917 	ldw	r2,-28(fp)
   20f88:	10c00044 	addi	r3,r2,1
   20f8c:	e0800217 	ldw	r2,8(fp)
   20f90:	1880021e 	bne	r3,r2,20f9c <OC_I2CL_Read+0x1e0>
   20f94:	00800a04 	movi	r2,40
   20f98:	00000106 	br	20fa0 <OC_I2CL_Read+0x1e4>
   20f9c:	00800804 	movi	r2,32
   20fa0:	20800035 	stwio	r2,0(r4)

        if (!ACK_judge_for_read( i2c_base)){
   20fa4:	e13ffc17 	ldw	r4,-16(fp)
   20fa8:	00208440 	call	20844 <ACK_judge_for_read>
   20fac:	1000051e 	bne	r2,zero,20fc4 <OC_I2CL_Read+0x208>
            printf("OC_I2CL_Read error[4]\r\n");
   20fb0:	010000f4 	movhi	r4,3
   20fb4:	21120d04 	addi	r4,r4,18484
   20fb8:	002515c0 	call	2515c <puts>
            return FALSE;
   20fbc:	0005883a 	mov	r2,zero
   20fc0:	00001906 	br	21028 <OC_I2CL_Read+0x26c>
        }
   // printf("\n read receive ACK-device address(read)! \n");

        Data32=IORD( i2c_base, 3);
   20fc4:	e0bffc17 	ldw	r2,-16(fp)
   20fc8:	10800304 	addi	r2,r2,12
   20fcc:	10800037 	ldwio	r2,0(r2)
   20fd0:	e0bffb15 	stw	r2,-20(fp)
        *(pData8+i) =  Data32 & 0xff;
   20fd4:	e0bff917 	ldw	r2,-28(fp)
   20fd8:	e0ffff17 	ldw	r3,-4(fp)
   20fdc:	1885883a 	add	r2,r3,r2
   20fe0:	e0fffb17 	ldw	r3,-20(fp)
   20fe4:	10c00005 	stb	r3,0(r2)
//   printf("\n read receive ACK-device address(read)! \n");

       //read the rxr data

#if 1
    for(i=0;i<nReadLength;i++){
   20fe8:	e0bff917 	ldw	r2,-28(fp)
   20fec:	10800044 	addi	r2,r2,1
   20ff0:	e0bff915 	stw	r2,-28(fp)
   20ff4:	e0fff917 	ldw	r3,-28(fp)
   20ff8:	e0800217 	ldw	r2,8(fp)
   20ffc:	18bfde16 	blt	r3,r2,20f78 <__alt_data_end+0xfffe0f78>
    DataLow =  Data32 & 0xff;

    pData16 = (DataHigh << 8) | DataLow;
#endif

   if (!Write32_Data( i2c_base, 4,0x40))
   21000:	01801004 	movi	r6,64
   21004:	01400104 	movi	r5,4
   21008:	e13ffc17 	ldw	r4,-16(fp)
   2100c:	00202900 	call	20290 <Write32_Data>
   21010:	1000021e 	bne	r2,zero,2101c <OC_I2CL_Read+0x260>
       return FALSE;
   21014:	0005883a 	mov	r2,zero
   21018:	00000306 	br	21028 <OC_I2CL_Read+0x26c>

   //OS_msleep(1);
    usleep(SLEEP_TIME);
   2101c:	01003e84 	movi	r4,250
   21020:	0031ed80 	call	31ed8 <usleep>

   return TRUE;
   21024:	00800044 	movi	r2,1

}
   21028:	e037883a 	mov	sp,fp
   2102c:	dfc00117 	ldw	ra,4(sp)
   21030:	df000017 	ldw	fp,0(sp)
   21034:	dec00204 	addi	sp,sp,8
   21038:	f800283a 	ret

0002103c <Focus_Init>:
// please observe focus performance when change the scal ,scal_f. or when change camera frame rate
alt_u8  focus_scal   =   4;  // scan 0 -> 1023 , step: SCAL , to find STEP_UP
alt_u8  focus_scal_f =   1;  //  scan STEP_UP + - SCAL/2 , step: SCAL_F
alt_u8  focus_th     =   20;

void Focus_Init(void){
   2103c:	defffe04 	addi	sp,sp,-8
   21040:	dfc00115 	stw	ra,4(sp)
   21044:	df000015 	stw	fp,0(sp)
   21048:	d839883a 	mov	fp,sp
  // please look at TERASIC_AUTO_FOCUS IP to see register's detail.
  IOWR(TERASIC_AUTO_FOCUS_0_BASE,REG_CTRL, 0);// focus mode : 1: window-screen, 0: full-screen
   2104c:	0007883a 	mov	r3,zero
   21050:	00800134 	movhi	r2,4
   21054:	10840904 	addi	r2,r2,4132
   21058:	10c00035 	stwio	r3,0(r2)
  IOWR(TERASIC_AUTO_FOCUS_0_BASE,REG_FOCUS_W, focus_width);// focus_width
   2105c:	d0a0010b 	ldhu	r2,-32764(gp)
   21060:	10ffffcc 	andi	r3,r2,65535
   21064:	00800134 	movhi	r2,4
   21068:	10840a04 	addi	r2,r2,4136
   2106c:	10c00035 	stwio	r3,0(r2)
  IOWR(TERASIC_AUTO_FOCUS_0_BASE,REG_FOCUS_H, focus_height);// focus_height
   21070:	d0a0018b 	ldhu	r2,-32762(gp)
   21074:	10ffffcc 	andi	r3,r2,65535
   21078:	00800134 	movhi	r2,4
   2107c:	10840b04 	addi	r2,r2,4140
   21080:	10c00035 	stwio	r3,0(r2)
  IOWR(TERASIC_AUTO_FOCUS_0_BASE,REG_FOCUS_X_START, video_w/2-focus_width/2);//x_start
   21084:	d0a0000b 	ldhu	r2,-32768(gp)
   21088:	10bfffcc 	andi	r2,r2,65535
   2108c:	1004d07a 	srli	r2,r2,1
   21090:	10ffffcc 	andi	r3,r2,65535
   21094:	d0a0010b 	ldhu	r2,-32764(gp)
   21098:	10bfffcc 	andi	r2,r2,65535
   2109c:	1004d07a 	srli	r2,r2,1
   210a0:	10bfffcc 	andi	r2,r2,65535
   210a4:	1887c83a 	sub	r3,r3,r2
   210a8:	00800134 	movhi	r2,4
   210ac:	10840c04 	addi	r2,r2,4144
   210b0:	10c00035 	stwio	r3,0(r2)
  IOWR(TERASIC_AUTO_FOCUS_0_BASE,REG_FOCUS_Y_START, video_h/2-focus_height/2);// y_start
   210b4:	d0a0008b 	ldhu	r2,-32766(gp)
   210b8:	10bfffcc 	andi	r2,r2,65535
   210bc:	1004d07a 	srli	r2,r2,1
   210c0:	10ffffcc 	andi	r3,r2,65535
   210c4:	d0a0018b 	ldhu	r2,-32762(gp)
   210c8:	10bfffcc 	andi	r2,r2,65535
   210cc:	1004d07a 	srli	r2,r2,1
   210d0:	10bfffcc 	andi	r2,r2,65535
   210d4:	1887c83a 	sub	r3,r3,r2
   210d8:	00800134 	movhi	r2,4
   210dc:	10840d04 	addi	r2,r2,4148
   210e0:	10c00035 	stwio	r3,0(r2)

  IOWR(TERASIC_AUTO_FOCUS_0_BASE,REG_SCAL, focus_scal*256 + focus_scal_f); // scan 0 -> 1023 , step: SCAL , to find STEP_UP
   210e4:	d0a00203 	ldbu	r2,-32760(gp)
   210e8:	10803fcc 	andi	r2,r2,255
   210ec:	1006923a 	slli	r3,r2,8
   210f0:	d0a00243 	ldbu	r2,-32759(gp)
   210f4:	10803fcc 	andi	r2,r2,255
   210f8:	1887883a 	add	r3,r3,r2
   210fc:	00800134 	movhi	r2,4
   21100:	10840e04 	addi	r2,r2,4152
   21104:	10c00035 	stwio	r3,0(r2)
                                                                          //  scan STEP_UP + - SCAL/2 , step: SCAL_F
  IOWR(TERASIC_AUTO_FOCUS_0_BASE,REG_TH, focus_th);
   21108:	d0a00283 	ldbu	r2,-32758(gp)
   2110c:	10c03fcc 	andi	r3,r2,255
   21110:	00800134 	movhi	r2,4
   21114:	10840f04 	addi	r2,r2,4156
   21118:	10c00035 	stwio	r3,0(r2)

  //////////// focus at initial time
  usleep(100);
   2111c:	01001904 	movi	r4,100
   21120:	0031ed80 	call	31ed8 <usleep>
  IOWR(TERASIC_AUTO_FOCUS_0_BASE,REG_GO, 1);
   21124:	00c00044 	movi	r3,1
   21128:	00800134 	movhi	r2,4
   2112c:	10840804 	addi	r2,r2,4128
   21130:	10c00035 	stwio	r3,0(r2)
  usleep(2);
   21134:	01000084 	movi	r4,2
   21138:	0031ed80 	call	31ed8 <usleep>
  IOWR(TERASIC_AUTO_FOCUS_0_BASE,REG_GO, 0);
   2113c:	0007883a 	mov	r3,zero
   21140:	00800134 	movhi	r2,4
   21144:	10840804 	addi	r2,r2,4128
   21148:	10c00035 	stwio	r3,0(r2)
}
   2114c:	0001883a 	nop
   21150:	e037883a 	mov	sp,fp
   21154:	dfc00117 	ldw	ra,4(sp)
   21158:	df000017 	ldw	fp,0(sp)
   2115c:	dec00204 	addi	sp,sp,8
   21160:	f800283a 	ret

00021164 <Focus_Window>:

alt_u16 Focus_Window(int x,int y){
   21164:	defffa04 	addi	sp,sp,-24
   21168:	dfc00515 	stw	ra,20(sp)
   2116c:	df000415 	stw	fp,16(sp)
   21170:	df000404 	addi	fp,sp,16
   21174:	e13ffe15 	stw	r4,-8(fp)
   21178:	e17fff15 	stw	r5,-4(fp)
   alt_u16 x_start,y_start;
   alt_u16 end_focus;

   if(Focus_Released()) { // pre focus done
   2117c:	00213440 	call	21344 <Focus_Released>
   21180:	10006a26 	beq	r2,zero,2132c <Focus_Window+0x1c8>
	   IOWR(TERASIC_AUTO_FOCUS_0_BASE,REG_CTRL, 1);// focus mode : 1: window-screen, 0: full-screen
   21184:	00c00044 	movi	r3,1
   21188:	00800134 	movhi	r2,4
   2118c:	10840904 	addi	r2,r2,4132
   21190:	10c00035 	stwio	r3,0(r2)

	   if(( x -  focus_width/2) < 0 ) x_start = 0;
   21194:	d0a0010b 	ldhu	r2,-32764(gp)
   21198:	10bfffcc 	andi	r2,r2,65535
   2119c:	1004d07a 	srli	r2,r2,1
   211a0:	10bfffcc 	andi	r2,r2,65535
   211a4:	e0fffe17 	ldw	r3,-8(fp)
   211a8:	1885c83a 	sub	r2,r3,r2
   211ac:	1000020e 	bge	r2,zero,211b8 <Focus_Window+0x54>
   211b0:	e03ffc0d 	sth	zero,-16(fp)
   211b4:	00001606 	br	21210 <Focus_Window+0xac>
	   else if(( x + focus_width/2 ) > video_w )  x_start = video_w -1 -focus_width;
   211b8:	d0a0010b 	ldhu	r2,-32764(gp)
   211bc:	10bfffcc 	andi	r2,r2,65535
   211c0:	1004d07a 	srli	r2,r2,1
   211c4:	10ffffcc 	andi	r3,r2,65535
   211c8:	e0bffe17 	ldw	r2,-8(fp)
   211cc:	1885883a 	add	r2,r3,r2
   211d0:	d0e0000b 	ldhu	r3,-32768(gp)
   211d4:	18ffffcc 	andi	r3,r3,65535
   211d8:	1880060e 	bge	r3,r2,211f4 <Focus_Window+0x90>
   211dc:	d0e0000b 	ldhu	r3,-32768(gp)
   211e0:	d0a0010b 	ldhu	r2,-32764(gp)
   211e4:	1885c83a 	sub	r2,r3,r2
   211e8:	10bfffc4 	addi	r2,r2,-1
   211ec:	e0bffc0d 	sth	r2,-16(fp)
   211f0:	00000706 	br	21210 <Focus_Window+0xac>
	   else x_start = x - focus_width/2;
   211f4:	e0bffe17 	ldw	r2,-8(fp)
   211f8:	1007883a 	mov	r3,r2
   211fc:	d0a0010b 	ldhu	r2,-32764(gp)
   21200:	10bfffcc 	andi	r2,r2,65535
   21204:	1004d07a 	srli	r2,r2,1
   21208:	1885c83a 	sub	r2,r3,r2
   2120c:	e0bffc0d 	sth	r2,-16(fp)

	   if(( y -  focus_height/2) < 0 ) y_start = 0;
   21210:	d0a0018b 	ldhu	r2,-32762(gp)
   21214:	10bfffcc 	andi	r2,r2,65535
   21218:	1004d07a 	srli	r2,r2,1
   2121c:	10bfffcc 	andi	r2,r2,65535
   21220:	e0ffff17 	ldw	r3,-4(fp)
   21224:	1885c83a 	sub	r2,r3,r2
   21228:	1000020e 	bge	r2,zero,21234 <Focus_Window+0xd0>
   2122c:	e03ffc8d 	sth	zero,-14(fp)
   21230:	00001606 	br	2128c <Focus_Window+0x128>
	   else if(( y + focus_height/2 ) > video_h )  y_start = video_h -1 -focus_height;
   21234:	d0a0018b 	ldhu	r2,-32762(gp)
   21238:	10bfffcc 	andi	r2,r2,65535
   2123c:	1004d07a 	srli	r2,r2,1
   21240:	10ffffcc 	andi	r3,r2,65535
   21244:	e0bfff17 	ldw	r2,-4(fp)
   21248:	1885883a 	add	r2,r3,r2
   2124c:	d0e0008b 	ldhu	r3,-32766(gp)
   21250:	18ffffcc 	andi	r3,r3,65535
   21254:	1880060e 	bge	r3,r2,21270 <Focus_Window+0x10c>
   21258:	d0e0008b 	ldhu	r3,-32766(gp)
   2125c:	d0a0018b 	ldhu	r2,-32762(gp)
   21260:	1885c83a 	sub	r2,r3,r2
   21264:	10bfffc4 	addi	r2,r2,-1
   21268:	e0bffc8d 	sth	r2,-14(fp)
   2126c:	00000706 	br	2128c <Focus_Window+0x128>
	   else y_start = y - focus_height/2;
   21270:	e0bfff17 	ldw	r2,-4(fp)
   21274:	1007883a 	mov	r3,r2
   21278:	d0a0018b 	ldhu	r2,-32762(gp)
   2127c:	10bfffcc 	andi	r2,r2,65535
   21280:	1004d07a 	srli	r2,r2,1
   21284:	1885c83a 	sub	r2,r3,r2
   21288:	e0bffc8d 	sth	r2,-14(fp)

	   printf("x_start= %d,y_start= %d\n",x_start,y_start);
   2128c:	e0bffc0b 	ldhu	r2,-16(fp)
   21290:	e0fffc8b 	ldhu	r3,-14(fp)
   21294:	180d883a 	mov	r6,r3
   21298:	100b883a 	mov	r5,r2
   2129c:	010000f4 	movhi	r4,3
   212a0:	21121304 	addi	r4,r4,18508
   212a4:	00250400 	call	25040 <printf>

	   IOWR(TERASIC_AUTO_FOCUS_0_BASE,REG_FOCUS_X_START, x_start);//x_start
   212a8:	e0fffc0b 	ldhu	r3,-16(fp)
   212ac:	00800134 	movhi	r2,4
   212b0:	10840c04 	addi	r2,r2,4144
   212b4:	10c00035 	stwio	r3,0(r2)
	   IOWR(TERASIC_AUTO_FOCUS_0_BASE,REG_FOCUS_Y_START, y_start);//y_start
   212b8:	e0fffc8b 	ldhu	r3,-14(fp)
   212bc:	00800134 	movhi	r2,4
   212c0:	10840d04 	addi	r2,r2,4148
   212c4:	10c00035 	stwio	r3,0(r2)

	   usleep(10);
   212c8:	01000284 	movi	r4,10
   212cc:	0031ed80 	call	31ed8 <usleep>

	   IOWR(TERASIC_AUTO_FOCUS_0_BASE,REG_GO, 1);
   212d0:	00c00044 	movi	r3,1
   212d4:	00800134 	movhi	r2,4
   212d8:	10840804 	addi	r2,r2,4128
   212dc:	10c00035 	stwio	r3,0(r2)
	   usleep(2);
   212e0:	01000084 	movi	r4,2
   212e4:	0031ed80 	call	31ed8 <usleep>
	   IOWR(TERASIC_AUTO_FOCUS_0_BASE,REG_GO, 0);
   212e8:	0007883a 	mov	r3,zero
   212ec:	00800134 	movhi	r2,4
   212f0:	10840804 	addi	r2,r2,4128
   212f4:	10c00035 	stwio	r3,0(r2)
	   Focus_Released();
   212f8:	00213440 	call	21344 <Focus_Released>

	   end_focus = IORD(TERASIC_AUTO_FOCUS_0_BASE,REG_STATUS)&0x0FFF;
   212fc:	00800134 	movhi	r2,4
   21300:	10840804 	addi	r2,r2,4128
   21304:	10800037 	ldwio	r2,0(r2)
   21308:	1083ffcc 	andi	r2,r2,4095
   2130c:	e0bffd0d 	sth	r2,-12(fp)
	   printf("end_focus = %d \n",end_focus);
   21310:	e0bffd0b 	ldhu	r2,-12(fp)
   21314:	100b883a 	mov	r5,r2
   21318:	010000f4 	movhi	r4,3
   2131c:	21121a04 	addi	r4,r4,18536
   21320:	00250400 	call	25040 <printf>

	   return end_focus;
   21324:	e0bffd0b 	ldhu	r2,-12(fp)
   21328:	00000106 	br	21330 <Focus_Window+0x1cc>

   }
   return end_focus;
   2132c:	e0bffd0b 	ldhu	r2,-12(fp)

}
   21330:	e037883a 	mov	sp,fp
   21334:	dfc00117 	ldw	ra,4(sp)
   21338:	df000017 	ldw	fp,0(sp)
   2133c:	dec00204 	addi	sp,sp,8
   21340:	f800283a 	ret

00021344 <Focus_Released>:

int Focus_Released(void){
   21344:	defffc04 	addi	sp,sp,-16
   21348:	dfc00315 	stw	ra,12(sp)
   2134c:	df000215 	stw	fp,8(sp)
   21350:	df000204 	addi	fp,sp,8
  int Released = FALSE;
   21354:	e03ffe15 	stw	zero,-8(fp)
 * alt_nticks() returns the elapsed number of system clock ticks since reset.
 */

static ALT_INLINE alt_u32 ALT_ALWAYS_INLINE alt_nticks (void)
{
  return _alt_nticks;
   21358:	00800134 	movhi	r2,4
   2135c:	10a7c904 	addi	r2,r2,-24796
   21360:	10c00017 	ldw	r3,0(r2)
 * Obtain the system clock rate in ticks/s. 
 */

static ALT_INLINE alt_u32 ALT_ALWAYS_INLINE alt_ticks_per_second (void)
{
  return _alt_tick_rate;
   21364:	00800134 	movhi	r2,4
   21368:	10a7c804 	addi	r2,r2,-24800
   2136c:	10800017 	ldw	r2,0(r2)
  alt_u32 TimeOut;

  TimeOut = alt_nticks() + alt_ticks_per_second()*8;
   21370:	100490fa 	slli	r2,r2,3
   21374:	1885883a 	add	r2,r3,r2
   21378:	e0bfff15 	stw	r2,-4(fp)

  while((IORD(TERASIC_AUTO_FOCUS_0_BASE,REG_STATUS)&0x8000) ==0 && alt_nticks() < TimeOut ); // waiting for VCM release I2C bus
   2137c:	0001883a 	nop
   21380:	00800134 	movhi	r2,4
   21384:	10840804 	addi	r2,r2,4128
   21388:	10800037 	ldwio	r2,0(r2)
   2138c:	10a0000c 	andi	r2,r2,32768
   21390:	1000051e 	bne	r2,zero,213a8 <Focus_Released+0x64>
 * alt_nticks() returns the elapsed number of system clock ticks since reset.
 */

static ALT_INLINE alt_u32 ALT_ALWAYS_INLINE alt_nticks (void)
{
  return _alt_nticks;
   21394:	00800134 	movhi	r2,4
   21398:	10a7c904 	addi	r2,r2,-24796
   2139c:	10c00017 	ldw	r3,0(r2)
   213a0:	e0bfff17 	ldw	r2,-4(fp)
   213a4:	18bff636 	bltu	r3,r2,21380 <__alt_data_end+0xfffe1380>
   213a8:	00800134 	movhi	r2,4
   213ac:	10a7c904 	addi	r2,r2,-24796
   213b0:	10c00017 	ldw	r3,0(r2)

  if(alt_nticks() < TimeOut ) Released = TRUE;
   213b4:	e0bfff17 	ldw	r2,-4(fp)
   213b8:	1880032e 	bgeu	r3,r2,213c8 <Focus_Released+0x84>
   213bc:	00800044 	movi	r2,1
   213c0:	e0bffe15 	stw	r2,-8(fp)
   213c4:	00000306 	br	213d4 <Focus_Released+0x90>
  else printf("\n =>Released check TimeOut!\n");
   213c8:	010000f4 	movhi	r4,3
   213cc:	21121f04 	addi	r4,r4,18556
   213d0:	002515c0 	call	2515c <puts>

  usleep(10000);
   213d4:	0109c404 	movi	r4,10000
   213d8:	0031ed80 	call	31ed8 <usleep>

  return Released;
   213dc:	e0bffe17 	ldw	r2,-8(fp)
}
   213e0:	e037883a 	mov	sp,fp
   213e4:	dfc00117 	ldw	ra,4(sp)
   213e8:	df000017 	ldw	fp,0(sp)
   213ec:	dec00204 	addi	sp,sp,8
   213f0:	f800283a 	ret

000213f4 <mipi_clear_error>:

int filtered = 0;
int mode = 0;


void mipi_clear_error(void) {
   213f4:	defffe04 	addi	sp,sp,-8
   213f8:	dfc00115 	stw	ra,4(sp)
   213fc:	df000015 	stw	fp,0(sp)
   21400:	d839883a 	mov	fp,sp
	MipiBridgeRegWrite(MIPI_REG_CSIStatus, 0x01FF); // clear error
   21404:	01407fc4 	movi	r5,511
   21408:	01001904 	movi	r4,100
   2140c:	0022d480 	call	22d48 <MipiBridgeRegWrite>
	MipiBridgeRegWrite(MIPI_REG_MDLSynErr, 0x0000); // clear error
   21410:	000b883a 	mov	r5,zero
   21414:	01001a04 	movi	r4,104
   21418:	0022d480 	call	22d48 <MipiBridgeRegWrite>
	MipiBridgeRegWrite(MIPI_REG_FrmErrCnt, 0x0000); // clear error
   2141c:	000b883a 	mov	r5,zero
   21420:	01002004 	movi	r4,128
   21424:	0022d480 	call	22d48 <MipiBridgeRegWrite>
	MipiBridgeRegWrite(MIPI_REG_MDLErrCnt, 0x0000); // clear error
   21428:	000b883a 	mov	r5,zero
   2142c:	01002404 	movi	r4,144
   21430:	0022d480 	call	22d48 <MipiBridgeRegWrite>

	MipiBridgeRegWrite(0x0082, 0x00);
   21434:	000b883a 	mov	r5,zero
   21438:	01002084 	movi	r4,130
   2143c:	0022d480 	call	22d48 <MipiBridgeRegWrite>
	MipiBridgeRegWrite(0x0084, 0x00);
   21440:	000b883a 	mov	r5,zero
   21444:	01002104 	movi	r4,132
   21448:	0022d480 	call	22d48 <MipiBridgeRegWrite>
	MipiBridgeRegWrite(0x0086, 0x00);
   2144c:	000b883a 	mov	r5,zero
   21450:	01002184 	movi	r4,134
   21454:	0022d480 	call	22d48 <MipiBridgeRegWrite>
	MipiBridgeRegWrite(0x0088, 0x00);
   21458:	000b883a 	mov	r5,zero
   2145c:	01002204 	movi	r4,136
   21460:	0022d480 	call	22d48 <MipiBridgeRegWrite>
	MipiBridgeRegWrite(0x008A, 0x00);
   21464:	000b883a 	mov	r5,zero
   21468:	01002284 	movi	r4,138
   2146c:	0022d480 	call	22d48 <MipiBridgeRegWrite>
	MipiBridgeRegWrite(0x008C, 0x00);
   21470:	000b883a 	mov	r5,zero
   21474:	01002304 	movi	r4,140
   21478:	0022d480 	call	22d48 <MipiBridgeRegWrite>
	MipiBridgeRegWrite(0x008E, 0x00);
   2147c:	000b883a 	mov	r5,zero
   21480:	01002384 	movi	r4,142
   21484:	0022d480 	call	22d48 <MipiBridgeRegWrite>
	MipiBridgeRegWrite(0x0090, 0x00);
   21488:	000b883a 	mov	r5,zero
   2148c:	01002404 	movi	r4,144
   21490:	0022d480 	call	22d48 <MipiBridgeRegWrite>
}
   21494:	0001883a 	nop
   21498:	e037883a 	mov	sp,fp
   2149c:	dfc00117 	ldw	ra,4(sp)
   214a0:	df000017 	ldw	fp,0(sp)
   214a4:	dec00204 	addi	sp,sp,8
   214a8:	f800283a 	ret

000214ac <mipi_show_error_info>:

void mipi_show_error_info(void) {
   214ac:	defff904 	addi	sp,sp,-28
   214b0:	dfc00615 	stw	ra,24(sp)
   214b4:	df000515 	stw	fp,20(sp)
   214b8:	df000504 	addi	fp,sp,20

	alt_u16 PHY_status, SCI_status, MDLSynErr, FrmErrCnt, MDLErrCnt;

	PHY_status = MipiBridgeRegRead(MIPI_REG_PHYSta);
   214bc:	01001884 	movi	r4,98
   214c0:	0022db40 	call	22db4 <MipiBridgeRegRead>
   214c4:	e0bffd0d 	sth	r2,-12(fp)
	SCI_status = MipiBridgeRegRead(MIPI_REG_CSIStatus);
   214c8:	01001904 	movi	r4,100
   214cc:	0022db40 	call	22db4 <MipiBridgeRegRead>
   214d0:	e0bffd8d 	sth	r2,-10(fp)
	MDLSynErr = MipiBridgeRegRead(MIPI_REG_MDLSynErr);
   214d4:	01001a04 	movi	r4,104
   214d8:	0022db40 	call	22db4 <MipiBridgeRegRead>
   214dc:	e0bffe0d 	sth	r2,-8(fp)
	FrmErrCnt = MipiBridgeRegRead(MIPI_REG_FrmErrCnt);
   214e0:	01002004 	movi	r4,128
   214e4:	0022db40 	call	22db4 <MipiBridgeRegRead>
   214e8:	e0bffe8d 	sth	r2,-6(fp)
	MDLErrCnt = MipiBridgeRegRead(MIPI_REG_MDLErrCnt);
   214ec:	01002404 	movi	r4,144
   214f0:	0022db40 	call	22db4 <MipiBridgeRegRead>
   214f4:	e0bfff0d 	sth	r2,-4(fp)
	printf(
   214f8:	e13ffd0b 	ldhu	r4,-12(fp)
   214fc:	e17ffd8b 	ldhu	r5,-10(fp)
   21500:	e1bffe0b 	ldhu	r6,-8(fp)
   21504:	e0bffe8b 	ldhu	r2,-6(fp)
   21508:	e0ffff0b 	ldhu	r3,-4(fp)
   2150c:	d8c00115 	stw	r3,4(sp)
   21510:	d8800015 	stw	r2,0(sp)
   21514:	300f883a 	mov	r7,r6
   21518:	280d883a 	mov	r6,r5
   2151c:	200b883a 	mov	r5,r4
   21520:	010000f4 	movhi	r4,3
   21524:	21122704 	addi	r4,r4,18588
   21528:	00250400 	call	25040 <printf>
			"PHY_status=%xh, CSI_status=%xh, MDLSynErr=%xh, FrmErrCnt=%xh, MDLErrCnt=%xh\r\n",
			PHY_status, SCI_status, MDLSynErr, FrmErrCnt, MDLErrCnt);
}
   2152c:	0001883a 	nop
   21530:	e037883a 	mov	sp,fp
   21534:	dfc00117 	ldw	ra,4(sp)
   21538:	df000017 	ldw	fp,0(sp)
   2153c:	dec00204 	addi	sp,sp,8
   21540:	f800283a 	ret

00021544 <mipi_show_error_info_more>:

void mipi_show_error_info_more(void) {
   21544:	defffe04 	addi	sp,sp,-8
   21548:	dfc00115 	stw	ra,4(sp)
   2154c:	df000015 	stw	fp,0(sp)
   21550:	d839883a 	mov	fp,sp
	printf("FrmErrCnt = %d\n", MipiBridgeRegRead(0x0080));
   21554:	01002004 	movi	r4,128
   21558:	0022db40 	call	22db4 <MipiBridgeRegRead>
   2155c:	10bfffcc 	andi	r2,r2,65535
   21560:	100b883a 	mov	r5,r2
   21564:	010000f4 	movhi	r4,3
   21568:	21123b04 	addi	r4,r4,18668
   2156c:	00250400 	call	25040 <printf>
	printf("CRCErrCnt = %d\n", MipiBridgeRegRead(0x0082));
   21570:	01002084 	movi	r4,130
   21574:	0022db40 	call	22db4 <MipiBridgeRegRead>
   21578:	10bfffcc 	andi	r2,r2,65535
   2157c:	100b883a 	mov	r5,r2
   21580:	010000f4 	movhi	r4,3
   21584:	21123f04 	addi	r4,r4,18684
   21588:	00250400 	call	25040 <printf>
	printf("CorErrCnt = %d\n", MipiBridgeRegRead(0x0084));
   2158c:	01002104 	movi	r4,132
   21590:	0022db40 	call	22db4 <MipiBridgeRegRead>
   21594:	10bfffcc 	andi	r2,r2,65535
   21598:	100b883a 	mov	r5,r2
   2159c:	010000f4 	movhi	r4,3
   215a0:	21124304 	addi	r4,r4,18700
   215a4:	00250400 	call	25040 <printf>
	printf("HdrErrCnt = %d\n", MipiBridgeRegRead(0x0086));
   215a8:	01002184 	movi	r4,134
   215ac:	0022db40 	call	22db4 <MipiBridgeRegRead>
   215b0:	10bfffcc 	andi	r2,r2,65535
   215b4:	100b883a 	mov	r5,r2
   215b8:	010000f4 	movhi	r4,3
   215bc:	21124704 	addi	r4,r4,18716
   215c0:	00250400 	call	25040 <printf>
	printf("EIDErrCnt = %d\n", MipiBridgeRegRead(0x0088));
   215c4:	01002204 	movi	r4,136
   215c8:	0022db40 	call	22db4 <MipiBridgeRegRead>
   215cc:	10bfffcc 	andi	r2,r2,65535
   215d0:	100b883a 	mov	r5,r2
   215d4:	010000f4 	movhi	r4,3
   215d8:	21124b04 	addi	r4,r4,18732
   215dc:	00250400 	call	25040 <printf>
	printf("CtlErrCnt = %d\n", MipiBridgeRegRead(0x008A));
   215e0:	01002284 	movi	r4,138
   215e4:	0022db40 	call	22db4 <MipiBridgeRegRead>
   215e8:	10bfffcc 	andi	r2,r2,65535
   215ec:	100b883a 	mov	r5,r2
   215f0:	010000f4 	movhi	r4,3
   215f4:	21124f04 	addi	r4,r4,18748
   215f8:	00250400 	call	25040 <printf>
	printf("SoTErrCnt = %d\n", MipiBridgeRegRead(0x008C));
   215fc:	01002304 	movi	r4,140
   21600:	0022db40 	call	22db4 <MipiBridgeRegRead>
   21604:	10bfffcc 	andi	r2,r2,65535
   21608:	100b883a 	mov	r5,r2
   2160c:	010000f4 	movhi	r4,3
   21610:	21125304 	addi	r4,r4,18764
   21614:	00250400 	call	25040 <printf>
	printf("SynErrCnt = %d\n", MipiBridgeRegRead(0x008E));
   21618:	01002384 	movi	r4,142
   2161c:	0022db40 	call	22db4 <MipiBridgeRegRead>
   21620:	10bfffcc 	andi	r2,r2,65535
   21624:	100b883a 	mov	r5,r2
   21628:	010000f4 	movhi	r4,3
   2162c:	21125704 	addi	r4,r4,18780
   21630:	00250400 	call	25040 <printf>
	printf("MDLErrCnt = %d\n", MipiBridgeRegRead(0x0090));
   21634:	01002404 	movi	r4,144
   21638:	0022db40 	call	22db4 <MipiBridgeRegRead>
   2163c:	10bfffcc 	andi	r2,r2,65535
   21640:	100b883a 	mov	r5,r2
   21644:	010000f4 	movhi	r4,3
   21648:	21125b04 	addi	r4,r4,18796
   2164c:	00250400 	call	25040 <printf>
	printf("FIFOSTATUS = %d\n", MipiBridgeRegRead(0x00F8));
   21650:	01003e04 	movi	r4,248
   21654:	0022db40 	call	22db4 <MipiBridgeRegRead>
   21658:	10bfffcc 	andi	r2,r2,65535
   2165c:	100b883a 	mov	r5,r2
   21660:	010000f4 	movhi	r4,3
   21664:	21125f04 	addi	r4,r4,18812
   21668:	00250400 	call	25040 <printf>
	printf("DataType = 0x%04x\n", MipiBridgeRegRead(0x006A));
   2166c:	01001a84 	movi	r4,106
   21670:	0022db40 	call	22db4 <MipiBridgeRegRead>
   21674:	10bfffcc 	andi	r2,r2,65535
   21678:	100b883a 	mov	r5,r2
   2167c:	010000f4 	movhi	r4,3
   21680:	21126404 	addi	r4,r4,18832
   21684:	00250400 	call	25040 <printf>
	printf("CSIPktLen = %d\n", MipiBridgeRegRead(0x006E));
   21688:	01001b84 	movi	r4,110
   2168c:	0022db40 	call	22db4 <MipiBridgeRegRead>
   21690:	10bfffcc 	andi	r2,r2,65535
   21694:	100b883a 	mov	r5,r2
   21698:	010000f4 	movhi	r4,3
   2169c:	21126904 	addi	r4,r4,18852
   216a0:	00250400 	call	25040 <printf>
}
   216a4:	0001883a 	nop
   216a8:	e037883a 	mov	sp,fp
   216ac:	dfc00117 	ldw	ra,4(sp)
   216b0:	df000017 	ldw	fp,0(sp)
   216b4:	dec00204 	addi	sp,sp,8
   216b8:	f800283a 	ret

000216bc <MIPI_Init>:

bool MIPI_Init(void) {
   216bc:	defffd04 	addi	sp,sp,-12
   216c0:	dfc00215 	stw	ra,8(sp)
   216c4:	df000115 	stw	fp,4(sp)
   216c8:	df000104 	addi	fp,sp,4
	bool bSuccess;

	bSuccess = oc_i2c_init_ex(I2C_OPENCORES_MIPI_BASE, 50 * 1000 * 1000,
   216cc:	018001b4 	movhi	r6,6
   216d0:	3186a004 	addi	r6,r6,6784
   216d4:	0140bef4 	movhi	r5,763
   216d8:	297c2004 	addi	r5,r5,-3968
   216dc:	01000134 	movhi	r4,4
   216e0:	21041804 	addi	r4,r4,4192
   216e4:	00203980 	call	20398 <oc_i2c_init_ex>
   216e8:	e0bfff15 	stw	r2,-4(fp)
			400 * 1000); //I2C: 400K
	if (!bSuccess)
   216ec:	e0bfff17 	ldw	r2,-4(fp)
   216f0:	1000031e 	bne	r2,zero,21700 <MIPI_Init+0x44>
		printf("failed to init MIPI- Bridge i2c\r\n");
   216f4:	010000f4 	movhi	r4,3
   216f8:	21126d04 	addi	r4,r4,18868
   216fc:	002515c0 	call	2515c <puts>

	usleep(50 * 1000);
   21700:	0130d414 	movui	r4,50000
   21704:	0031ed80 	call	31ed8 <usleep>
	MipiBridgeInit();
   21708:	0022e2c0 	call	22e2c <MipiBridgeInit>

	usleep(500 * 1000);
   2170c:	01000234 	movhi	r4,8
   21710:	21284804 	addi	r4,r4,-24288
   21714:	0031ed80 	call	31ed8 <usleep>

//	bSuccess = oc_i2c_init_ex(I2C_OPENCORES_CAMERA_BASE, 50*1000*1000,400*1000); //I2C: 400K
//	if (!bSuccess)
//		printf("failed to init MIPI- Camera i2c\r\n");

	MipiCameraInit();
   21718:	00236100 	call	23610 <MipiCameraInit>
	MIPI_BIN_LEVEL(DEFAULT_LEVEL);
   2171c:	010000c4 	movi	r4,3
   21720:	00234500 	call	23450 <MIPI_BIN_LEVEL>
//    OV8865_FOCUS_Move_to(340);

//    oc_i2c_uninit(I2C_OPENCORES_CAMERA_BASE);  // Release I2C bus , due to two I2C master shared!

	usleep(1000);
   21724:	0100fa04 	movi	r4,1000
   21728:	0031ed80 	call	31ed8 <usleep>

//    oc_i2c_uninit(I2C_OPENCORES_MIPI_BASE);

	return bSuccess;
   2172c:	e0bfff17 	ldw	r2,-4(fp)
}
   21730:	e037883a 	mov	sp,fp
   21734:	dfc00117 	ldw	ra,4(sp)
   21738:	df000017 	ldw	fp,0(sp)
   2173c:	dec00204 	addi	sp,sp,8
   21740:	f800283a 	ret

00021744 <main>:

int main() {
   21744:	deffe804 	addi	sp,sp,-96
   21748:	dfc01715 	stw	ra,92(sp)
   2174c:	df001615 	stw	fp,88(sp)
   21750:	df001604 	addi	fp,sp,88

	fcntl(STDIN_FILENO, F_SETFL, O_NONBLOCK);
   21754:	01900004 	movi	r6,16384
   21758:	01400104 	movi	r5,4
   2175c:	0009883a 	mov	r4,zero
   21760:	00312780 	call	31278 <fcntl>

	printf("DE10-LITE D8M VGA Demo\n");
   21764:	010000f4 	movhi	r4,3
   21768:	21127604 	addi	r4,r4,18904
   2176c:	002515c0 	call	2515c <puts>
	printf("Imperial College EEE2 Project version\n");
   21770:	010000f4 	movhi	r4,3
   21774:	21127c04 	addi	r4,r4,18928
   21778:	002515c0 	call	2515c <puts>
	IOWR(MIPI_PWDN_N_BASE, 0x00, 0x00);
   2177c:	0007883a 	mov	r3,zero
   21780:	00800134 	movhi	r2,4
   21784:	10842004 	addi	r2,r2,4224
   21788:	10c00035 	stwio	r3,0(r2)
	IOWR(MIPI_RESET_N_BASE, 0x00, 0x00);
   2178c:	0007883a 	mov	r3,zero
   21790:	00800134 	movhi	r2,4
   21794:	10842404 	addi	r2,r2,4240
   21798:	10c00035 	stwio	r3,0(r2)

	usleep(2000);
   2179c:	0101f404 	movi	r4,2000
   217a0:	0031ed80 	call	31ed8 <usleep>
	IOWR(MIPI_PWDN_N_BASE, 0x00, 0xFF);
   217a4:	00c03fc4 	movi	r3,255
   217a8:	00800134 	movhi	r2,4
   217ac:	10842004 	addi	r2,r2,4224
   217b0:	10c00035 	stwio	r3,0(r2)
	usleep(2000);
   217b4:	0101f404 	movi	r4,2000
   217b8:	0031ed80 	call	31ed8 <usleep>
	IOWR(MIPI_RESET_N_BASE, 0x00, 0xFF);
   217bc:	00c03fc4 	movi	r3,255
   217c0:	00800134 	movhi	r2,4
   217c4:	10842404 	addi	r2,r2,4240
   217c8:	10c00035 	stwio	r3,0(r2)

	printf("Image Processor ID: %x\n", IORD(0x42000, EEE_IMGPROC_ID));
   217cc:	00800134 	movhi	r2,4
   217d0:	10880204 	addi	r2,r2,8200
   217d4:	10800037 	ldwio	r2,0(r2)
   217d8:	100b883a 	mov	r5,r2
   217dc:	010000f4 	movhi	r4,3
   217e0:	21128604 	addi	r4,r4,18968
   217e4:	00250400 	call	25040 <printf>
	//printf("Image Processor ID: %x\n",IORD(EEE_IMGPROC_0_BASE,EEE_IMGPROC_ID)); //Don't know why this doesn't work - definition is in system.h in BSP

	usleep(2000);
   217e8:	0101f404 	movi	r4,2000
   217ec:	0031ed80 	call	31ed8 <usleep>

	// MIPI Init
	if (!MIPI_Init()) {
   217f0:	00216bc0 	call	216bc <MIPI_Init>
   217f4:	1000041e 	bne	r2,zero,21808 <main+0xc4>
		printf("MIPI_Init Init failed!\r\n");
   217f8:	010000f4 	movhi	r4,3
   217fc:	21128c04 	addi	r4,r4,18992
   21800:	002515c0 	call	2515c <puts>
   21804:	00000306 	br	21814 <main+0xd0>
	} else {
		printf("MIPI_Init Init successfully!\r\n");
   21808:	010000f4 	movhi	r4,3
   2180c:	21129204 	addi	r4,r4,19016
   21810:	002515c0 	call	2515c <puts>
	}

//   while(1){
	mipi_clear_error();
   21814:	00213f40 	call	213f4 <mipi_clear_error>
	usleep(50 * 1000);
   21818:	0130d414 	movui	r4,50000
   2181c:	0031ed80 	call	31ed8 <usleep>
	mipi_clear_error();
   21820:	00213f40 	call	213f4 <mipi_clear_error>
	usleep(1000 * 1000);
   21824:	010003f4 	movhi	r4,15
   21828:	21109004 	addi	r4,r4,16960
   2182c:	0031ed80 	call	31ed8 <usleep>
	mipi_show_error_info();
   21830:	00214ac0 	call	214ac <mipi_show_error_info>
//	    mipi_show_error_info_more();
	printf("\n");
   21834:	01000284 	movi	r4,10
   21838:	00250840 	call	25084 <putchar>
		usleep(50*1000);
	}
#endif

	//////////////////////////////////////////////////////////
	alt_u16 bin_level = DEFAULT_LEVEL;
   2183c:	008000c4 	movi	r2,3
   21840:	e0bfeb0d 	sth	r2,-84(fp)
	alt_u8 manual_focus_step = 10;
   21844:	00800284 	movi	r2,10
   21848:	e0bff505 	stb	r2,-44(fp)
	alt_u16 current_focus = 300;
   2184c:	00804b04 	movi	r2,300
   21850:	e0bfeb8d 	sth	r2,-82(fp)
	int boundingBoxColour = 0;
   21854:	e03fec15 	stw	zero,-80(fp)
	alt_u32 exposureTime = EXPOSURE_INIT;
   21858:	00880004 	movi	r2,8192
   2185c:	e0bfed15 	stw	r2,-76(fp)
	alt_u16 gain = GAIN_INIT;
   21860:	00bfc004 	movi	r2,-256
   21864:	e0bfee0d 	sth	r2,-72(fp)

	OV8865SetExposure(exposureTime);
   21868:	e13fed17 	ldw	r4,-76(fp)
   2186c:	00231e80 	call	231e8 <OV8865SetExposure>
	OV8865SetGain(gain);
   21870:	e0bfee0b 	ldhu	r2,-72(fp)
   21874:	1009883a 	mov	r4,r2
   21878:	00232c80 	call	232c8 <OV8865SetGain>
	Focus_Init();
   2187c:	002103c0 	call	2103c <Focus_Init>

	FILE* ser = fopen("/dev/uart", "wb+");
   21880:	014000f4 	movhi	r5,3
   21884:	29529a04 	addi	r5,r5,19048
   21888:	010000f4 	movhi	r4,3
   2188c:	21129b04 	addi	r4,r4,19052
   21890:	0023d600 	call	23d60 <fopen>
   21894:	e0bff615 	stw	r2,-40(fp)
	if (ser) {
   21898:	e0bff617 	ldw	r2,-40(fp)
   2189c:	10000426 	beq	r2,zero,218b0 <main+0x16c>
		printf("Opened UART\n");
   218a0:	010000f4 	movhi	r4,3
   218a4:	21129e04 	addi	r4,r4,19064
   218a8:	002515c0 	call	2515c <puts>
   218ac:	00000406 	br	218c0 <main+0x17c>
	} else {
		printf("Failed to open UART\n");
   218b0:	010000f4 	movhi	r4,3
   218b4:	2112a104 	addi	r4,r4,19076
   218b8:	002515c0 	call	2515c <puts>
		while (1)
			;
   218bc:	003fff06 	br	218bc <__alt_data_end+0xfffe18bc>
	}

	while (1) {

		// touch KEY0 to trigger Auto focus
		if ((IORD(KEY_BASE,0) & 0x03) == 0x02) {
   218c0:	00800134 	movhi	r2,4
   218c4:	10842804 	addi	r2,r2,4256
   218c8:	10800037 	ldwio	r2,0(r2)
   218cc:	108000cc 	andi	r2,r2,3
   218d0:	10800098 	cmpnei	r2,r2,2
   218d4:	1000041e 	bne	r2,zero,218e8 <main+0x1a4>

			current_focus = Focus_Window(320, 240);
   218d8:	01403c04 	movi	r5,240
   218dc:	01005004 	movi	r4,320
   218e0:	00211640 	call	21164 <Focus_Window>
   218e4:	e0bfeb8d 	sth	r2,-82(fp)
		}
		// touch KEY1 to ZOOM
		if ((IORD(KEY_BASE,0) & 0x03) == 0x01) {
   218e8:	00800134 	movhi	r2,4
   218ec:	10842804 	addi	r2,r2,4256
   218f0:	10800037 	ldwio	r2,0(r2)
   218f4:	108000cc 	andi	r2,r2,3
   218f8:	10800058 	cmpnei	r2,r2,1
   218fc:	1000151e 	bne	r2,zero,21954 <main+0x210>
			if (bin_level == 3)
   21900:	e0bfeb0b 	ldhu	r2,-84(fp)
   21904:	108000d8 	cmpnei	r2,r2,3
   21908:	1000031e 	bne	r2,zero,21918 <main+0x1d4>
				bin_level = 1;
   2190c:	00800044 	movi	r2,1
   21910:	e0bfeb0d 	sth	r2,-84(fp)
   21914:	00000306 	br	21924 <main+0x1e0>
			else
				bin_level++;
   21918:	e0bfeb0b 	ldhu	r2,-84(fp)
   2191c:	10800044 	addi	r2,r2,1
   21920:	e0bfeb0d 	sth	r2,-84(fp)
			printf("set bin level to %d\n", bin_level);
   21924:	e0bfeb0b 	ldhu	r2,-84(fp)
   21928:	100b883a 	mov	r5,r2
   2192c:	010000f4 	movhi	r4,3
   21930:	2112a604 	addi	r4,r4,19096
   21934:	00250400 	call	25040 <printf>
			MIPI_BIN_LEVEL(bin_level);
   21938:	e0bfeb0b 	ldhu	r2,-84(fp)
   2193c:	10803fcc 	andi	r2,r2,255
   21940:	1009883a 	mov	r4,r2
   21944:	00234500 	call	23450 <MIPI_BIN_LEVEL>
			usleep(500000);
   21948:	01000234 	movhi	r4,8
   2194c:	21284804 	addi	r4,r4,-24288
   21950:	0031ed80 	call	31ed8 <usleep>

		}
#endif

		//Read messages from the image processor and print them on the terminal
		int stage = 0;
   21954:	e03fef15 	stw	zero,-68(fp)
		char color;
		int x_min,x_max,y_min,y_max;
		int x_diff,y_diff,x_dis,y_dis;
		int x_center,y_center,angle;
		while ((IORD(0x42000,EEE_IMGPROC_STATUS) >> 8) & 0x01ff) { //Find out if there are words to read
   21958:	0000af06 	br	21c18 <main+0x4d4>
			int word = IORD(0x42000, EEE_IMGPROC_MSG); //Get next word from message buffer
   2195c:	00800134 	movhi	r2,4
   21960:	10880104 	addi	r2,r2,8196
   21964:	10800037 	ldwio	r2,0(r2)
   21968:	e0bfff15 	stw	r2,-4(fp)
			if (fwrite(&word, 4, 1, ser) != 1)
   2196c:	e0bfff04 	addi	r2,fp,-4
   21970:	e1fff617 	ldw	r7,-40(fp)
   21974:	01800044 	movi	r6,1
   21978:	01400104 	movi	r5,4
   2197c:	1009883a 	mov	r4,r2
   21980:	002436c0 	call	2436c <fwrite>
   21984:	10800060 	cmpeqi	r2,r2,1
   21988:	1000031e 	bne	r2,zero,21998 <main+0x254>
				printf("Error writing to UART");
   2198c:	010000f4 	movhi	r4,3
   21990:	2112ac04 	addi	r4,r4,19120
   21994:	00250400 	call	25040 <printf>

			if( mode == 1){
   21998:	d0a91e17 	ldw	r2,-23432(gp)
   2199c:	10800058 	cmpnei	r2,r2,1
   219a0:	1000011e 	bne	r2,zero,219a8 <main+0x264>
   219a4:	00009c06 	br	21c18 <main+0x4d4>
				continue;
			}else if (word == EEE_IMGPROC_MSG_START_R){
   219a8:	e0ffff17 	ldw	r3,-4(fp)
   219ac:	008014b4 	movhi	r2,82
   219b0:	10909084 	addi	r2,r2,16962
   219b4:	1880081e 	bne	r3,r2,219d8 <main+0x294>
				color = 'r';
   219b8:	00801c84 	movi	r2,114
   219bc:	e0bff005 	stb	r2,-64(fp)
				stage = 1;
   219c0:	00800044 	movi	r2,1
   219c4:	e0bfef15 	stw	r2,-68(fp)
				printf("red   : ");
   219c8:	010000f4 	movhi	r4,3
   219cc:	2112b204 	addi	r4,r4,19144
   219d0:	00250400 	call	25040 <printf>
   219d4:	00009006 	br	21c18 <main+0x4d4>
			}else if(word == EEE_IMGPROC_MSG_START_G){
   219d8:	e0ffff17 	ldw	r3,-4(fp)
   219dc:	008011f4 	movhi	r2,71
   219e0:	10909084 	addi	r2,r2,16962
   219e4:	1880081e 	bne	r3,r2,21a08 <main+0x2c4>
				color = 'g';
   219e8:	008019c4 	movi	r2,103
   219ec:	e0bff005 	stb	r2,-64(fp)
				stage = 1;
   219f0:	00800044 	movi	r2,1
   219f4:	e0bfef15 	stw	r2,-68(fp)

				printf("green : ");
   219f8:	010000f4 	movhi	r4,3
   219fc:	2112b504 	addi	r4,r4,19156
   21a00:	00250400 	call	25040 <printf>
   21a04:	00008406 	br	21c18 <main+0x4d4>
			}else if(word == EEE_IMGPROC_MSG_START_B){
   21a08:	e0ffff17 	ldw	r3,-4(fp)
   21a0c:	008010b4 	movhi	r2,66
   21a10:	10909084 	addi	r2,r2,16962
   21a14:	1880081e 	bne	r3,r2,21a38 <main+0x2f4>
				color = 'b';
   21a18:	00801884 	movi	r2,98
   21a1c:	e0bff005 	stb	r2,-64(fp)
				stage = 1;
   21a20:	00800044 	movi	r2,1
   21a24:	e0bfef15 	stw	r2,-68(fp)

				printf("blue  : ");
   21a28:	010000f4 	movhi	r4,3
   21a2c:	2112b804 	addi	r4,r4,19168
   21a30:	00250400 	call	25040 <printf>
   21a34:	00007806 	br	21c18 <main+0x4d4>
			}else if(word == EEE_IMGPROC_MSG_START_Y){
   21a38:	e0ffff17 	ldw	r3,-4(fp)
   21a3c:	00801674 	movhi	r2,89
   21a40:	10909084 	addi	r2,r2,16962
   21a44:	1880081e 	bne	r3,r2,21a68 <main+0x324>
				color = 'y';
   21a48:	00801e44 	movi	r2,121
   21a4c:	e0bff005 	stb	r2,-64(fp)
				stage = 1;
   21a50:	00800044 	movi	r2,1
   21a54:	e0bfef15 	stw	r2,-68(fp)

				printf("yellow: ");
   21a58:	010000f4 	movhi	r4,3
   21a5c:	2112bb04 	addi	r4,r4,19180
   21a60:	00250400 	call	25040 <printf>
   21a64:	00006c06 	br	21c18 <main+0x4d4>
			}else if(word == EEE_IMGPROC_MSG_START_P){
   21a68:	e0ffff17 	ldw	r3,-4(fp)
   21a6c:	00801434 	movhi	r2,80
   21a70:	10909084 	addi	r2,r2,16962
   21a74:	1880081e 	bne	r3,r2,21a98 <main+0x354>
				color = 'p';
   21a78:	00801c04 	movi	r2,112
   21a7c:	e0bff005 	stb	r2,-64(fp)
				stage = 1;
   21a80:	00800044 	movi	r2,1
   21a84:	e0bfef15 	stw	r2,-68(fp)

				printf("pink  : ");
   21a88:	010000f4 	movhi	r4,3
   21a8c:	2112be04 	addi	r4,r4,19192
   21a90:	00250400 	call	25040 <printf>
   21a94:	00006006 	br	21c18 <main+0x4d4>
			}else if(stage == 1){
   21a98:	e0bfef17 	ldw	r2,-68(fp)
   21a9c:	10800058 	cmpnei	r2,r2,1
   21aa0:	1000471e 	bne	r2,zero,21bc0 <main+0x47c>
				x_min = (word & 0x07FF0000) >> 16 ;
   21aa4:	e0bfff17 	ldw	r2,-4(fp)
   21aa8:	1081ffec 	andhi	r2,r2,2047
   21aac:	1005d43a 	srai	r2,r2,16
   21ab0:	e0bff115 	stw	r2,-60(fp)
				x_max = word & 0x000007FF;
   21ab4:	e0bfff17 	ldw	r2,-4(fp)
   21ab8:	1081ffcc 	andi	r2,r2,2047
   21abc:	e0bff215 	stw	r2,-56(fp)
				x_diff = x_max-x_min;
   21ac0:	e0fff217 	ldw	r3,-56(fp)
   21ac4:	e0bff117 	ldw	r2,-60(fp)
   21ac8:	1885c83a 	sub	r2,r3,r2
   21acc:	e0bff915 	stw	r2,-28(fp)
				x_center = (x_min+x_max)/2;
   21ad0:	e0fff117 	ldw	r3,-60(fp)
   21ad4:	e0bff217 	ldw	r2,-56(fp)
   21ad8:	1885883a 	add	r2,r3,r2
   21adc:	1006d7fa 	srli	r3,r2,31
   21ae0:	1885883a 	add	r2,r3,r2
   21ae4:	1005d07a 	srai	r2,r2,1
   21ae8:	e0bffa15 	stw	r2,-24(fp)
				printf("x_min: %3d ",x_min);
   21aec:	e17ff117 	ldw	r5,-60(fp)
   21af0:	010000f4 	movhi	r4,3
   21af4:	2112c104 	addi	r4,r4,19204
   21af8:	00250400 	call	25040 <printf>
				printf("x_max: %3d ",x_max);
   21afc:	e17ff217 	ldw	r5,-56(fp)
   21b00:	010000f4 	movhi	r4,3
   21b04:	2112c404 	addi	r4,r4,19216
   21b08:	00250400 	call	25040 <printf>
				printf("Size: %4d ",x_diff);
   21b0c:	e17ff917 	ldw	r5,-28(fp)
   21b10:	010000f4 	movhi	r4,3
   21b14:	2112c704 	addi	r4,r4,19228
   21b18:	00250400 	call	25040 <printf>

				angle = (x_center-320)/13;//(x_center-320)/320*25; // percentage of screen converted into degrees;
   21b1c:	e0bffa17 	ldw	r2,-24(fp)
   21b20:	10bfb004 	addi	r2,r2,-320
   21b24:	01400344 	movi	r5,13
   21b28:	1009883a 	mov	r4,r2
   21b2c:	0023ab80 	call	23ab8 <__divsi3>
   21b30:	e0bff415 	stw	r2,-48(fp)
				if (x_diff < 0){
   21b34:	e0bff917 	ldw	r2,-28(fp)
   21b38:	1000030e 	bge	r2,zero,21b48 <main+0x404>
					x_dis = 0;
   21b3c:	e03ff315 	stw	zero,-52(fp)
					angle = 0;
   21b40:	e03ff415 	stw	zero,-48(fp)
   21b44:	00001306 	br	21b94 <main+0x450>
				}else if ( x_diff > 50 && x_diff < 580){
   21b48:	e0bff917 	ldw	r2,-28(fp)
   21b4c:	10800cd0 	cmplti	r2,r2,51
   21b50:	1000101e 	bne	r2,zero,21b94 <main+0x450>
   21b54:	e0bff917 	ldw	r2,-28(fp)
   21b58:	10809108 	cmpgei	r2,r2,580
   21b5c:	10000d1e 	bne	r2,zero,21b94 <main+0x450>
					x_dis = 4900/x_diff;
   21b60:	e17ff917 	ldw	r5,-28(fp)
   21b64:	0104c904 	movi	r4,4900
   21b68:	0023ab80 	call	23ab8 <__divsi3>
   21b6c:	e0bff315 	stw	r2,-52(fp)
					//(x_center-320)/320*25; // percentage of screen converted into degrees;
					fprintf(ser,"%i,%d,%d\n",color,angle,x_dis);
   21b70:	e0fff007 	ldb	r3,-64(fp)
   21b74:	e0bff317 	ldw	r2,-52(fp)
   21b78:	d8800015 	stw	r2,0(sp)
   21b7c:	e1fff417 	ldw	r7,-48(fp)
   21b80:	180d883a 	mov	r6,r3
   21b84:	014000f4 	movhi	r5,3
   21b88:	2952ca04 	addi	r5,r5,19240
   21b8c:	e13ff617 	ldw	r4,-40(fp)
   21b90:	0023da00 	call	23da0 <fprintf>
				}
				printf("angle: %3d ",angle);
   21b94:	e17ff417 	ldw	r5,-48(fp)
   21b98:	010000f4 	movhi	r4,3
   21b9c:	2112cd04 	addi	r4,r4,19252
   21ba0:	00250400 	call	25040 <printf>
				printf("distance: %3d \n",x_dis);
   21ba4:	e17ff317 	ldw	r5,-52(fp)
   21ba8:	010000f4 	movhi	r4,3
   21bac:	2112d004 	addi	r4,r4,19264
   21bb0:	00250400 	call	25040 <printf>

				stage = 2;
   21bb4:	00800084 	movi	r2,2
   21bb8:	e0bfef15 	stw	r2,-68(fp)
   21bbc:	00001606 	br	21c18 <main+0x4d4>
			}else if(stage == 2){
   21bc0:	e0bfef17 	ldw	r2,-68(fp)
   21bc4:	10800098 	cmpnei	r2,r2,2
   21bc8:	1000131e 	bne	r2,zero,21c18 <main+0x4d4>
				y_min = (word & 0x07FF0000) >> 16;
   21bcc:	e0bfff17 	ldw	r2,-4(fp)
   21bd0:	1081ffec 	andhi	r2,r2,2047
   21bd4:	1005d43a 	srai	r2,r2,16
   21bd8:	e0bffb15 	stw	r2,-20(fp)
				y_max = word & 0x000007FF;
   21bdc:	e0bfff17 	ldw	r2,-4(fp)
   21be0:	1081ffcc 	andi	r2,r2,2047
   21be4:	e0bffc15 	stw	r2,-16(fp)
				y_diff = y_max-y_min;
   21be8:	e0fffc17 	ldw	r3,-16(fp)
   21bec:	e0bffb17 	ldw	r2,-20(fp)
   21bf0:	1885c83a 	sub	r2,r3,r2
   21bf4:	e0bffd15 	stw	r2,-12(fp)
				y_center = (x_min+x_max)/2;
   21bf8:	e0fff117 	ldw	r3,-60(fp)
   21bfc:	e0bff217 	ldw	r2,-56(fp)
   21c00:	1885883a 	add	r2,r3,r2
   21c04:	1006d7fa 	srli	r3,r2,31
   21c08:	1885883a 	add	r2,r3,r2
   21c0c:	1005d07a 	srai	r2,r2,1
   21c10:	e0bffe15 	stw	r2,-8(fp)
//				printf("y_min: %3d ",y_min);
//				printf("y_max: %3d ",y_max);
//				printf("Size: %3d \n",y_diff);

				stage = 0;
   21c14:	e03fef15 	stw	zero,-68(fp)
		int stage = 0;
		char color;
		int x_min,x_max,y_min,y_max;
		int x_diff,y_diff,x_dis,y_dis;
		int x_center,y_center,angle;
		while ((IORD(0x42000,EEE_IMGPROC_STATUS) >> 8) & 0x01ff) { //Find out if there are words to read
   21c18:	00800134 	movhi	r2,4
   21c1c:	10880004 	addi	r2,r2,8192
   21c20:	10800037 	ldwio	r2,0(r2)
   21c24:	1005d23a 	srai	r2,r2,8
   21c28:	10807fcc 	andi	r2,r2,511
   21c2c:	103f4b1e 	bne	r2,zero,2195c <__alt_data_end+0xfffe195c>
//			fprintf(ser,"%x : ", (IORD(0x42000,EEE_IMGPROC_STATUS) >> 8) & 0x1ff);
//			fprintf(ser,"%08x ", word);
		}

		//Update the bounding box colour
		boundingBoxColour = ((boundingBoxColour + 1) & 0xff);
   21c30:	e0bfec17 	ldw	r2,-80(fp)
   21c34:	10800044 	addi	r2,r2,1
   21c38:	10803fcc 	andi	r2,r2,255
   21c3c:	e0bfec15 	stw	r2,-80(fp)
		IOWR(0x42000, EEE_IMGPROC_BBCOL,
   21c40:	e0bfec17 	ldw	r2,-80(fp)
   21c44:	1006923a 	slli	r3,r2,8
   21c48:	01003fc4 	movi	r4,255
   21c4c:	e0bfec17 	ldw	r2,-80(fp)
   21c50:	2085c83a 	sub	r2,r4,r2
   21c54:	1886b03a 	or	r3,r3,r2
   21c58:	00800134 	movhi	r2,4
   21c5c:	10880304 	addi	r2,r2,8204
   21c60:	10c00035 	stwio	r3,0(r2)
				(boundingBoxColour << 8) | (0xff - boundingBoxColour));



		//Process input commands
		int hue_step = 5;
   21c64:	00800144 	movi	r2,5
   21c68:	e0bff715 	stw	r2,-36(fp)
		int in = getchar();
   21c6c:	008000f4 	movhi	r2,3
   21c70:	109eb604 	addi	r2,r2,31448
   21c74:	10800017 	ldw	r2,0(r2)
   21c78:	10800117 	ldw	r2,4(r2)
   21c7c:	1009883a 	mov	r4,r2
   21c80:	00244100 	call	24410 <getc>
   21c84:	e0bff815 	stw	r2,-32(fp)
		switch (in) {
   21c88:	e0bff817 	ldw	r2,-32(fp)
   21c8c:	10bff7c4 	addi	r2,r2,-33
   21c90:	10c016a8 	cmpgeui	r3,r2,90
   21c94:	1804161e 	bne	r3,zero,22cf0 <main+0x15ac>
   21c98:	100690ba 	slli	r3,r2,2
   21c9c:	008000b4 	movhi	r2,2
   21ca0:	10872c04 	addi	r2,r2,7344
   21ca4:	1885883a 	add	r2,r3,r2
   21ca8:	10800017 	ldw	r2,0(r2)
   21cac:	1000683a 	jmp	r2
   21cb0:	00022504 	movi	zero,2196
   21cb4:	00022cf0 	cmpltui	zero,zero,2227
   21cb8:	000226c4 	movi	zero,2203
   21cbc:	00022264 	muli	zero,zero,2185
   21cc0:	00022344 	movi	zero,2189
   21cc4:	00021fc4 	movi	zero,2175
   21cc8:	00022cf0 	cmpltui	zero,zero,2227
   21ccc:	00022184 	movi	zero,2182
   21cd0:	00022cf0 	cmpltui	zero,zero,2227
   21cd4:	000220a4 	muli	zero,zero,2178
   21cd8:	00022cf0 	cmpltui	zero,zero,2227
   21cdc:	00022cf0 	cmpltui	zero,zero,2227
   21ce0:	00022cf0 	cmpltui	zero,zero,2227
   21ce4:	00022cf0 	cmpltui	zero,zero,2227
   21ce8:	00022c74 	movhi	zero,2225
   21cec:	00022cf0 	cmpltui	zero,zero,2227
   21cf0:	0002253c 	xorhi	zero,zero,2196
   21cf4:	0002261c 	xori	zero,zero,2200
   21cf8:	000226fc 	xorhi	zero,zero,2203
   21cfc:	0002229c 	xori	zero,zero,2186
   21d00:	0002237c 	xorhi	zero,zero,2189
   21d04:	0002245c 	xori	zero,zero,2193
   21d08:	00021ffc 	xorhi	zero,zero,2175
   21d0c:	000220dc 	xori	zero,zero,2179
   21d10:	000221bc 	xorhi	zero,zero,2182
   21d14:	00022cf0 	cmpltui	zero,zero,2227
   21d18:	00022cbc 	xorhi	zero,zero,2226
   21d1c:	00022cf0 	cmpltui	zero,zero,2227
   21d20:	00022cf0 	cmpltui	zero,zero,2227
   21d24:	00022cf0 	cmpltui	zero,zero,2227
   21d28:	00022cf0 	cmpltui	zero,zero,2227
   21d2c:	000225e4 	muli	zero,zero,2199
   21d30:	000227a4 	muli	zero,zero,2206
   21d34:	00022ab4 	movhi	zero,2218
   21d38:	000228f4 	movhi	zero,2211
   21d3c:	00022964 	muli	zero,zero,2213
   21d40:	00022654 	movui	zero,2201
   21d44:	00022a44 	movi	zero,2217
   21d48:	00022b24 	muli	zero,zero,2220
   21d4c:	00022c04 	movi	zero,2224
   21d50:	0002206c 	andhi	zero,zero,2177
   21d54:	00021e18 	cmpnei	zero,zero,2168
   21d58:	00021e68 	cmpgeui	zero,zero,2169
   21d5c:	00021ec8 	cmpgei	zero,zero,2171
   21d60:	00022cf0 	cmpltui	zero,zero,2227
   21d64:	00022b94 	movui	zero,2222
   21d68:	00022114 	movui	zero,2180
   21d6c:	00022cf0 	cmpltui	zero,zero,2227
   21d70:	00022494 	movui	zero,2194
   21d74:	000221f4 	movhi	zero,2183
   21d78:	00022884 	movi	zero,2210
   21d7c:	000222d4 	movui	zero,2187
   21d80:	00021f54 	movui	zero,2173
   21d84:	000229d4 	movui	zero,2215
   21d88:	00022574 	movhi	zero,2197
   21d8c:	00022814 	movui	zero,2208
   21d90:	000223b4 	movhi	zero,2190
   21d94:	00022734 	movhi	zero,2204
   21d98:	00022cf0 	cmpltui	zero,zero,2227
   21d9c:	00022cf0 	cmpltui	zero,zero,2227
   21da0:	00022cf0 	cmpltui	zero,zero,2227
   21da4:	00022424 	muli	zero,zero,2192
   21da8:	00022cf0 	cmpltui	zero,zero,2227
   21dac:	00022cf0 	cmpltui	zero,zero,2227
   21db0:	000227dc 	xori	zero,zero,2207
   21db4:	00022aec 	andhi	zero,zero,2219
   21db8:	0002292c 	andhi	zero,zero,2212
   21dbc:	0002299c 	xori	zero,zero,2214
   21dc0:	0002268c 	andi	zero,zero,2202
   21dc4:	00022a7c 	xorhi	zero,zero,2217
   21dc8:	00022b5c 	xori	zero,zero,2221
   21dcc:	00022c3c 	xorhi	zero,zero,2224
   21dd0:	00022034 	movhi	zero,2176
   21dd4:	00021e40 	call	21e4 <__alt_mem_onchip_memory2_0-0x1de1c>
   21dd8:	00021e98 	cmpnei	zero,zero,2170
   21ddc:	00021f10 	cmplti	zero,zero,2172
   21de0:	00022cf0 	cmpltui	zero,zero,2227
   21de4:	00022bcc 	andi	zero,zero,2223
   21de8:	0002214c 	andi	zero,zero,2181
   21dec:	00022cf0 	cmpltui	zero,zero,2227
   21df0:	000224cc 	andi	zero,zero,2195
   21df4:	0002222c 	andhi	zero,zero,2184
   21df8:	000228bc 	xorhi	zero,zero,2210
   21dfc:	0002230c 	andi	zero,zero,2188
   21e00:	00021f8c 	andi	zero,zero,2174
   21e04:	00022a0c 	andi	zero,zero,2216
   21e08:	000225ac 	andhi	zero,zero,2198
   21e0c:	0002284c 	andi	zero,zero,2209
   21e10:	000223ec 	andhi	zero,zero,2191
   21e14:	0002276c 	andhi	zero,zero,2205
		case 'J': {
			exposureTime += EXPOSURE_STEP;
   21e18:	e0bfed17 	ldw	r2,-76(fp)
   21e1c:	10840004 	addi	r2,r2,4096
   21e20:	e0bfed15 	stw	r2,-76(fp)
			OV8865SetExposure(exposureTime);
   21e24:	e13fed17 	ldw	r4,-76(fp)
   21e28:	00231e80 	call	231e8 <OV8865SetExposure>
			printf("\nExposure = %x ", exposureTime);
   21e2c:	e17fed17 	ldw	r5,-76(fp)
   21e30:	010000f4 	movhi	r4,3
   21e34:	2112d404 	addi	r4,r4,19280
   21e38:	00250400 	call	25040 <printf>
			break;
   21e3c:	0003ac06 	br	22cf0 <main+0x15ac>
		}
		case 'j': {
			exposureTime -= EXPOSURE_STEP;
   21e40:	e0bfed17 	ldw	r2,-76(fp)
   21e44:	10bc0004 	addi	r2,r2,-4096
   21e48:	e0bfed15 	stw	r2,-76(fp)
			OV8865SetExposure(exposureTime);
   21e4c:	e13fed17 	ldw	r4,-76(fp)
   21e50:	00231e80 	call	231e8 <OV8865SetExposure>
			printf("\nExposure = %x ", exposureTime);
   21e54:	e17fed17 	ldw	r5,-76(fp)
   21e58:	010000f4 	movhi	r4,3
   21e5c:	2112d404 	addi	r4,r4,19280
   21e60:	00250400 	call	25040 <printf>
			break;
   21e64:	0003a206 	br	22cf0 <main+0x15ac>
		}
		case 'K': {
			gain += GAIN_STEP;
   21e68:	e0bfee0b 	ldhu	r2,-72(fp)
   21e6c:	108003c4 	addi	r2,r2,15
   21e70:	e0bfee0d 	sth	r2,-72(fp)
			OV8865SetGain(gain);
   21e74:	e0bfee0b 	ldhu	r2,-72(fp)
   21e78:	1009883a 	mov	r4,r2
   21e7c:	00232c80 	call	232c8 <OV8865SetGain>
			printf("\nGain = %x ", gain);
   21e80:	e0bfee0b 	ldhu	r2,-72(fp)
   21e84:	100b883a 	mov	r5,r2
   21e88:	010000f4 	movhi	r4,3
   21e8c:	2112d804 	addi	r4,r4,19296
   21e90:	00250400 	call	25040 <printf>
			break;
   21e94:	00039606 	br	22cf0 <main+0x15ac>
		}
		case 'k': {
			gain -= GAIN_STEP;
   21e98:	e0bfee0b 	ldhu	r2,-72(fp)
   21e9c:	10bffc44 	addi	r2,r2,-15
   21ea0:	e0bfee0d 	sth	r2,-72(fp)
			OV8865SetGain(gain);
   21ea4:	e0bfee0b 	ldhu	r2,-72(fp)
   21ea8:	1009883a 	mov	r4,r2
   21eac:	00232c80 	call	232c8 <OV8865SetGain>
			printf("\nGain = %x ", gain);
   21eb0:	e0bfee0b 	ldhu	r2,-72(fp)
   21eb4:	100b883a 	mov	r5,r2
   21eb8:	010000f4 	movhi	r4,3
   21ebc:	2112d804 	addi	r4,r4,19296
   21ec0:	00250400 	call	25040 <printf>
			break;
   21ec4:	00038a06 	br	22cf0 <main+0x15ac>
		}
		case 'L': {
			current_focus += manual_focus_step;
   21ec8:	e0fff503 	ldbu	r3,-44(fp)
   21ecc:	e0bfeb8b 	ldhu	r2,-82(fp)
   21ed0:	1885883a 	add	r2,r3,r2
   21ed4:	e0bfeb8d 	sth	r2,-82(fp)
			if (current_focus > 1023)
   21ed8:	e0bfeb8b 	ldhu	r2,-82(fp)
   21edc:	10810030 	cmpltui	r2,r2,1024
   21ee0:	1000021e 	bne	r2,zero,21eec <main+0x7a8>
				current_focus = 1023;
   21ee4:	0080ffc4 	movi	r2,1023
   21ee8:	e0bfeb8d 	sth	r2,-82(fp)
			OV8865_FOCUS_Move_to(current_focus);
   21eec:	e0bfeb8b 	ldhu	r2,-82(fp)
   21ef0:	1009883a 	mov	r4,r2
   21ef4:	00231180 	call	23118 <OV8865_FOCUS_Move_to>
			printf("\nFocus = %x ", current_focus);
   21ef8:	e0bfeb8b 	ldhu	r2,-82(fp)
   21efc:	100b883a 	mov	r5,r2
   21f00:	010000f4 	movhi	r4,3
   21f04:	2112db04 	addi	r4,r4,19308
   21f08:	00250400 	call	25040 <printf>
			break;
   21f0c:	00037806 	br	22cf0 <main+0x15ac>
		}
		case 'l': {
			if (current_focus > manual_focus_step)
   21f10:	e0bff503 	ldbu	r2,-44(fp)
   21f14:	10ffffcc 	andi	r3,r2,65535
   21f18:	e0bfeb8b 	ldhu	r2,-82(fp)
   21f1c:	1880042e 	bgeu	r3,r2,21f30 <main+0x7ec>
				current_focus -= manual_focus_step;
   21f20:	e0bff503 	ldbu	r2,-44(fp)
   21f24:	e0ffeb8b 	ldhu	r3,-82(fp)
   21f28:	1885c83a 	sub	r2,r3,r2
   21f2c:	e0bfeb8d 	sth	r2,-82(fp)
			OV8865_FOCUS_Move_to(current_focus);
   21f30:	e0bfeb8b 	ldhu	r2,-82(fp)
   21f34:	1009883a 	mov	r4,r2
   21f38:	00231180 	call	23118 <OV8865_FOCUS_Move_to>
			printf("\nFocus = %x ", current_focus);
   21f3c:	e0bfeb8b 	ldhu	r2,-82(fp)
   21f40:	100b883a 	mov	r5,r2
   21f44:	010000f4 	movhi	r4,3
   21f48:	2112db04 	addi	r4,r4,19308
   21f4c:	00250400 	call	25040 <printf>
			break;
   21f50:	00036706 	br	22cf0 <main+0x15ac>
		}

		//BLUE HSV COLOR MAPPING
		case 'U': {
			IOWR(0x42000, EEE_IMGPROC_MSG, 0x0001);
   21f54:	00c00044 	movi	r3,1
   21f58:	00800134 	movhi	r2,4
   21f5c:	10880104 	addi	r2,r2,8196
   21f60:	10c00035 	stwio	r3,0(r2)
			blue_hl = blue_hl + hue_step;;
   21f64:	d0e00317 	ldw	r3,-32756(gp)
   21f68:	e0bff717 	ldw	r2,-36(fp)
   21f6c:	1885883a 	add	r2,r3,r2
   21f70:	d0a00315 	stw	r2,-32756(gp)
			printf("\nBlue Lower Hue increased to %d", blue_hl);
   21f74:	d0a00317 	ldw	r2,-32756(gp)
   21f78:	100b883a 	mov	r5,r2
   21f7c:	010000f4 	movhi	r4,3
   21f80:	2112df04 	addi	r4,r4,19324
   21f84:	00250400 	call	25040 <printf>
			break;
   21f88:	00035906 	br	22cf0 <main+0x15ac>
		}
		case 'u': {
			IOWR(0x42000, EEE_IMGPROC_MSG, 0x0002);
   21f8c:	00c00084 	movi	r3,2
   21f90:	00800134 	movhi	r2,4
   21f94:	10880104 	addi	r2,r2,8196
   21f98:	10c00035 	stwio	r3,0(r2)
			blue_hl -= hue_step;
   21f9c:	d0e00317 	ldw	r3,-32756(gp)
   21fa0:	e0bff717 	ldw	r2,-36(fp)
   21fa4:	1885c83a 	sub	r2,r3,r2
   21fa8:	d0a00315 	stw	r2,-32756(gp)
			printf("\nBlue Lower Hue decreased to %d", blue_hl);
   21fac:	d0a00317 	ldw	r2,-32756(gp)
   21fb0:	100b883a 	mov	r5,r2
   21fb4:	010000f4 	movhi	r4,3
   21fb8:	2112e704 	addi	r4,r4,19356
   21fbc:	00250400 	call	25040 <printf>
			break;
   21fc0:	00034b06 	br	22cf0 <main+0x15ac>
		}
		case '&': {
			IOWR(0x42000, EEE_IMGPROC_MSG, 0x0003);
   21fc4:	00c000c4 	movi	r3,3
   21fc8:	00800134 	movhi	r2,4
   21fcc:	10880104 	addi	r2,r2,8196
   21fd0:	10c00035 	stwio	r3,0(r2)
			blue_hu += hue_step;
   21fd4:	d0e00417 	ldw	r3,-32752(gp)
   21fd8:	e0bff717 	ldw	r2,-36(fp)
   21fdc:	1885883a 	add	r2,r3,r2
   21fe0:	d0a00415 	stw	r2,-32752(gp)
			printf("\nBlue Upper Hue increased to %d", blue_hu);
   21fe4:	d0a00417 	ldw	r2,-32752(gp)
   21fe8:	100b883a 	mov	r5,r2
   21fec:	010000f4 	movhi	r4,3
   21ff0:	2112ef04 	addi	r4,r4,19388
   21ff4:	00250400 	call	25040 <printf>
			break;
   21ff8:	00033d06 	br	22cf0 <main+0x15ac>
		}
		case '7': {
			IOWR(0x42000, EEE_IMGPROC_MSG, 0x0004);
   21ffc:	00c00104 	movi	r3,4
   22000:	00800134 	movhi	r2,4
   22004:	10880104 	addi	r2,r2,8196
   22008:	10c00035 	stwio	r3,0(r2)
			blue_hu -= hue_step;
   2200c:	d0e00417 	ldw	r3,-32752(gp)
   22010:	e0bff717 	ldw	r2,-36(fp)
   22014:	1885c83a 	sub	r2,r3,r2
   22018:	d0a00415 	stw	r2,-32752(gp)
			printf("\nBlue Upper Hue decreased to %d", blue_hu);
   2201c:	d0a00417 	ldw	r2,-32752(gp)
   22020:	100b883a 	mov	r5,r2
   22024:	010000f4 	movhi	r4,3
   22028:	2112f704 	addi	r4,r4,19420
   2202c:	00250400 	call	25040 <printf>
			break;
   22030:	00032f06 	br	22cf0 <main+0x15ac>
		}
		case 'i': {
			IOWR(0x42000, EEE_IMGPROC_MSG, 0x0005);
   22034:	00c00144 	movi	r3,5
   22038:	00800134 	movhi	r2,4
   2203c:	10880104 	addi	r2,r2,8196
   22040:	10c00035 	stwio	r3,0(r2)
			blue_sl += hue_step;
   22044:	d0e91217 	ldw	r3,-23480(gp)
   22048:	e0bff717 	ldw	r2,-36(fp)
   2204c:	1885883a 	add	r2,r3,r2
   22050:	d0a91215 	stw	r2,-23480(gp)
			printf("\nBlue Lower Saturation increased to %d", blue_sl);
   22054:	d0a91217 	ldw	r2,-23480(gp)
   22058:	100b883a 	mov	r5,r2
   2205c:	010000f4 	movhi	r4,3
   22060:	2112ff04 	addi	r4,r4,19452
   22064:	00250400 	call	25040 <printf>
			break;
   22068:	00032106 	br	22cf0 <main+0x15ac>
		}
		case 'I': {
			IOWR(0x42000, EEE_IMGPROC_MSG, 0x0006);
   2206c:	00c00184 	movi	r3,6
   22070:	00800134 	movhi	r2,4
   22074:	10880104 	addi	r2,r2,8196
   22078:	10c00035 	stwio	r3,0(r2)
			blue_sl -= hue_step;
   2207c:	d0e91217 	ldw	r3,-23480(gp)
   22080:	e0bff717 	ldw	r2,-36(fp)
   22084:	1885c83a 	sub	r2,r3,r2
   22088:	d0a91215 	stw	r2,-23480(gp)
			printf("\nBlue Lower Saturation decreased to %d", blue_sl);
   2208c:	d0a91217 	ldw	r2,-23480(gp)
   22090:	100b883a 	mov	r5,r2
   22094:	010000f4 	movhi	r4,3
   22098:	21130904 	addi	r4,r4,19492
   2209c:	00250400 	call	25040 <printf>
			break;
   220a0:	00031306 	br	22cf0 <main+0x15ac>
		}
		case '*': {
			IOWR(0x42000, EEE_IMGPROC_MSG, 0x0007);
   220a4:	00c001c4 	movi	r3,7
   220a8:	00800134 	movhi	r2,4
   220ac:	10880104 	addi	r2,r2,8196
   220b0:	10c00035 	stwio	r3,0(r2)
			blue_su += hue_step;
   220b4:	d0e00517 	ldw	r3,-32748(gp)
   220b8:	e0bff717 	ldw	r2,-36(fp)
   220bc:	1885883a 	add	r2,r3,r2
   220c0:	d0a00515 	stw	r2,-32748(gp)
			printf("\nBlue Upper Saturation increased to %d", blue_su);
   220c4:	d0a00517 	ldw	r2,-32748(gp)
   220c8:	100b883a 	mov	r5,r2
   220cc:	010000f4 	movhi	r4,3
   220d0:	21131304 	addi	r4,r4,19532
   220d4:	00250400 	call	25040 <printf>
			break;
   220d8:	00030506 	br	22cf0 <main+0x15ac>
		}
		case '8': {
			IOWR(0x42000, EEE_IMGPROC_MSG, 0x0008);
   220dc:	00c00204 	movi	r3,8
   220e0:	00800134 	movhi	r2,4
   220e4:	10880104 	addi	r2,r2,8196
   220e8:	10c00035 	stwio	r3,0(r2)
			blue_su -= hue_step;
   220ec:	d0e00517 	ldw	r3,-32748(gp)
   220f0:	e0bff717 	ldw	r2,-36(fp)
   220f4:	1885c83a 	sub	r2,r3,r2
   220f8:	d0a00515 	stw	r2,-32748(gp)
			printf("\nBlue Upper Saturation decreased to %d", blue_su);
   220fc:	d0a00517 	ldw	r2,-32748(gp)
   22100:	100b883a 	mov	r5,r2
   22104:	010000f4 	movhi	r4,3
   22108:	21131d04 	addi	r4,r4,19572
   2210c:	00250400 	call	25040 <printf>
			break;
   22110:	0002f706 	br	22cf0 <main+0x15ac>
		}
		case 'O': {
			IOWR(0x42000, EEE_IMGPROC_MSG, 0x0009);
   22114:	00c00244 	movi	r3,9
   22118:	00800134 	movhi	r2,4
   2211c:	10880104 	addi	r2,r2,8196
   22120:	10c00035 	stwio	r3,0(r2)
			blue_vl += hue_step;
   22124:	d0e91317 	ldw	r3,-23476(gp)
   22128:	e0bff717 	ldw	r2,-36(fp)
   2212c:	1885883a 	add	r2,r3,r2
   22130:	d0a91315 	stw	r2,-23476(gp)
			printf("\nBlue Lower Value increased to %d", blue_vl);
   22134:	d0a91317 	ldw	r2,-23476(gp)
   22138:	100b883a 	mov	r5,r2
   2213c:	010000f4 	movhi	r4,3
   22140:	21132704 	addi	r4,r4,19612
   22144:	00250400 	call	25040 <printf>
			break;
   22148:	0002e906 	br	22cf0 <main+0x15ac>
		}
		case 'o': {
			IOWR(0x42000, EEE_IMGPROC_MSG, 0x000a);
   2214c:	00c00284 	movi	r3,10
   22150:	00800134 	movhi	r2,4
   22154:	10880104 	addi	r2,r2,8196
   22158:	10c00035 	stwio	r3,0(r2)
			blue_vl -= hue_step;
   2215c:	d0e91317 	ldw	r3,-23476(gp)
   22160:	e0bff717 	ldw	r2,-36(fp)
   22164:	1885c83a 	sub	r2,r3,r2
   22168:	d0a91315 	stw	r2,-23476(gp)
			printf("\nBlue Lower Value decreased to %d", blue_vl);
   2216c:	d0a91317 	ldw	r2,-23476(gp)
   22170:	100b883a 	mov	r5,r2
   22174:	010000f4 	movhi	r4,3
   22178:	21133004 	addi	r4,r4,19648
   2217c:	00250400 	call	25040 <printf>
			break;
   22180:	0002db06 	br	22cf0 <main+0x15ac>
		}
		case '(': {
			IOWR(0x42000, EEE_IMGPROC_MSG, 0x000b);
   22184:	00c002c4 	movi	r3,11
   22188:	00800134 	movhi	r2,4
   2218c:	10880104 	addi	r2,r2,8196
   22190:	10c00035 	stwio	r3,0(r2)
			blue_vu += hue_step;
   22194:	d0e00617 	ldw	r3,-32744(gp)
   22198:	e0bff717 	ldw	r2,-36(fp)
   2219c:	1885883a 	add	r2,r3,r2
   221a0:	d0a00615 	stw	r2,-32744(gp)
			printf("\nBlue Lower Value increased to %d", blue_vu);
   221a4:	d0a00617 	ldw	r2,-32744(gp)
   221a8:	100b883a 	mov	r5,r2
   221ac:	010000f4 	movhi	r4,3
   221b0:	21132704 	addi	r4,r4,19612
   221b4:	00250400 	call	25040 <printf>
			break;
   221b8:	0002cd06 	br	22cf0 <main+0x15ac>
		}
		case '9': {
			IOWR(0x42000, EEE_IMGPROC_MSG, 0x000c);
   221bc:	00c00304 	movi	r3,12
   221c0:	00800134 	movhi	r2,4
   221c4:	10880104 	addi	r2,r2,8196
   221c8:	10c00035 	stwio	r3,0(r2)
			blue_vu -= hue_step;
   221cc:	d0e00617 	ldw	r3,-32744(gp)
   221d0:	e0bff717 	ldw	r2,-36(fp)
   221d4:	1885c83a 	sub	r2,r3,r2
   221d8:	d0a00615 	stw	r2,-32744(gp)
			printf("\nBlue Lower Value decreased to %d", blue_vu);
   221dc:	d0a00617 	ldw	r2,-32744(gp)
   221e0:	100b883a 	mov	r5,r2
   221e4:	010000f4 	movhi	r4,3
   221e8:	21133004 	addi	r4,r4,19648
   221ec:	00250400 	call	25040 <printf>
			break;
   221f0:	0002bf06 	br	22cf0 <main+0x15ac>
		}

		//GREEN HSV COLOR MAPPING
		case 'R': {
			IOWR(0x42000, EEE_IMGPROC_MSG, 0x1001);
   221f4:	00c40044 	movi	r3,4097
   221f8:	00800134 	movhi	r2,4
   221fc:	10880104 	addi	r2,r2,8196
   22200:	10c00035 	stwio	r3,0(r2)
			green_hl += hue_step;
   22204:	d0e00717 	ldw	r3,-32740(gp)
   22208:	e0bff717 	ldw	r2,-36(fp)
   2220c:	1885883a 	add	r2,r3,r2
   22210:	d0a00715 	stw	r2,-32740(gp)
			printf("\nGreen Lower Hue increased to %d", green_hl);
   22214:	d0a00717 	ldw	r2,-32740(gp)
   22218:	100b883a 	mov	r5,r2
   2221c:	010000f4 	movhi	r4,3
   22220:	21133904 	addi	r4,r4,19684
   22224:	00250400 	call	25040 <printf>
			break;
   22228:	0002b106 	br	22cf0 <main+0x15ac>
		}
		case 'r': {
			IOWR(0x42000, EEE_IMGPROC_MSG, 0x1002);
   2222c:	00c40084 	movi	r3,4098
   22230:	00800134 	movhi	r2,4
   22234:	10880104 	addi	r2,r2,8196
   22238:	10c00035 	stwio	r3,0(r2)
			green_hl -= hue_step;
   2223c:	d0e00717 	ldw	r3,-32740(gp)
   22240:	e0bff717 	ldw	r2,-36(fp)
   22244:	1885c83a 	sub	r2,r3,r2
   22248:	d0a00715 	stw	r2,-32740(gp)
			printf("\nGreen Lower Hue decreased to %d", green_hl);
   2224c:	d0a00717 	ldw	r2,-32740(gp)
   22250:	100b883a 	mov	r5,r2
   22254:	010000f4 	movhi	r4,3
   22258:	21134204 	addi	r4,r4,19720
   2225c:	00250400 	call	25040 <printf>
			break;
   22260:	0002a306 	br	22cf0 <main+0x15ac>
		}
		case '$': {
			IOWR(0x42000, EEE_IMGPROC_MSG, 0x1003);
   22264:	00c400c4 	movi	r3,4099
   22268:	00800134 	movhi	r2,4
   2226c:	10880104 	addi	r2,r2,8196
   22270:	10c00035 	stwio	r3,0(r2)
			green_hu += hue_step;
   22274:	d0e00817 	ldw	r3,-32736(gp)
   22278:	e0bff717 	ldw	r2,-36(fp)
   2227c:	1885883a 	add	r2,r3,r2
   22280:	d0a00815 	stw	r2,-32736(gp)
			printf("\nGreen upper Hue increased to %d", green_hu);
   22284:	d0a00817 	ldw	r2,-32736(gp)
   22288:	100b883a 	mov	r5,r2
   2228c:	010000f4 	movhi	r4,3
   22290:	21134b04 	addi	r4,r4,19756
   22294:	00250400 	call	25040 <printf>
			break;
   22298:	00029506 	br	22cf0 <main+0x15ac>
		}
		case '4': {
			IOWR(0x42000, EEE_IMGPROC_MSG, 0x1004);
   2229c:	00c40104 	movi	r3,4100
   222a0:	00800134 	movhi	r2,4
   222a4:	10880104 	addi	r2,r2,8196
   222a8:	10c00035 	stwio	r3,0(r2)
			green_hu -= hue_step;
   222ac:	d0e00817 	ldw	r3,-32736(gp)
   222b0:	e0bff717 	ldw	r2,-36(fp)
   222b4:	1885c83a 	sub	r2,r3,r2
   222b8:	d0a00815 	stw	r2,-32736(gp)
			printf("\nGreen upper Hue decreased to %d", green_hu);
   222bc:	d0a00817 	ldw	r2,-32736(gp)
   222c0:	100b883a 	mov	r5,r2
   222c4:	010000f4 	movhi	r4,3
   222c8:	21135404 	addi	r4,r4,19792
   222cc:	00250400 	call	25040 <printf>
			break;
   222d0:	00028706 	br	22cf0 <main+0x15ac>
		}
		case 'T': {
			IOWR(0x42000, EEE_IMGPROC_MSG, 0x1005);
   222d4:	00c40144 	movi	r3,4101
   222d8:	00800134 	movhi	r2,4
   222dc:	10880104 	addi	r2,r2,8196
   222e0:	10c00035 	stwio	r3,0(r2)
			green_sl += hue_step;
   222e4:	d0e91417 	ldw	r3,-23472(gp)
   222e8:	e0bff717 	ldw	r2,-36(fp)
   222ec:	1885883a 	add	r2,r3,r2
   222f0:	d0a91415 	stw	r2,-23472(gp)
			printf("\ngreen Lower Saturation increased to %d", green_sl);
   222f4:	d0a91417 	ldw	r2,-23472(gp)
   222f8:	100b883a 	mov	r5,r2
   222fc:	010000f4 	movhi	r4,3
   22300:	21135d04 	addi	r4,r4,19828
   22304:	00250400 	call	25040 <printf>
			break;
   22308:	00027906 	br	22cf0 <main+0x15ac>
		}
		case 't': {
			IOWR(0x42000, EEE_IMGPROC_MSG, 0x1006);
   2230c:	00c40184 	movi	r3,4102
   22310:	00800134 	movhi	r2,4
   22314:	10880104 	addi	r2,r2,8196
   22318:	10c00035 	stwio	r3,0(r2)
			green_sl -= hue_step;
   2231c:	d0e91417 	ldw	r3,-23472(gp)
   22320:	e0bff717 	ldw	r2,-36(fp)
   22324:	1885c83a 	sub	r2,r3,r2
   22328:	d0a91415 	stw	r2,-23472(gp)
			printf("\ngreen Lower Saturation decreased to %d", green_sl);
   2232c:	d0a91417 	ldw	r2,-23472(gp)
   22330:	100b883a 	mov	r5,r2
   22334:	010000f4 	movhi	r4,3
   22338:	21136704 	addi	r4,r4,19868
   2233c:	00250400 	call	25040 <printf>
			break;
   22340:	00026b06 	br	22cf0 <main+0x15ac>
		}
		case '%': {
			IOWR(0x42000, EEE_IMGPROC_MSG, 0x1007);
   22344:	00c401c4 	movi	r3,4103
   22348:	00800134 	movhi	r2,4
   2234c:	10880104 	addi	r2,r2,8196
   22350:	10c00035 	stwio	r3,0(r2)
			green_su += hue_step;
   22354:	d0e00917 	ldw	r3,-32732(gp)
   22358:	e0bff717 	ldw	r2,-36(fp)
   2235c:	1885883a 	add	r2,r3,r2
   22360:	d0a00915 	stw	r2,-32732(gp)
			printf("\ngreen Lower Saturation increased to %d", green_su);
   22364:	d0a00917 	ldw	r2,-32732(gp)
   22368:	100b883a 	mov	r5,r2
   2236c:	010000f4 	movhi	r4,3
   22370:	21135d04 	addi	r4,r4,19828
   22374:	00250400 	call	25040 <printf>
			break;
   22378:	00025d06 	br	22cf0 <main+0x15ac>
		}
		case '5': {
			IOWR(0x42000, EEE_IMGPROC_MSG, 0x1008);
   2237c:	00c40204 	movi	r3,4104
   22380:	00800134 	movhi	r2,4
   22384:	10880104 	addi	r2,r2,8196
   22388:	10c00035 	stwio	r3,0(r2)
			green_su -= hue_step;
   2238c:	d0e00917 	ldw	r3,-32732(gp)
   22390:	e0bff717 	ldw	r2,-36(fp)
   22394:	1885c83a 	sub	r2,r3,r2
   22398:	d0a00915 	stw	r2,-32732(gp)
			printf("\ngreen Lower Saturation decreased to %d", green_su);
   2239c:	d0a00917 	ldw	r2,-32732(gp)
   223a0:	100b883a 	mov	r5,r2
   223a4:	010000f4 	movhi	r4,3
   223a8:	21136704 	addi	r4,r4,19868
   223ac:	00250400 	call	25040 <printf>
			break;
   223b0:	00024f06 	br	22cf0 <main+0x15ac>
		}
		case 'Y': {
			IOWR(0x42000, EEE_IMGPROC_MSG, 0x1009);
   223b4:	00c40244 	movi	r3,4105
   223b8:	00800134 	movhi	r2,4
   223bc:	10880104 	addi	r2,r2,8196
   223c0:	10c00035 	stwio	r3,0(r2)
			green_vl += hue_step;
   223c4:	d0e91517 	ldw	r3,-23468(gp)
   223c8:	e0bff717 	ldw	r2,-36(fp)
   223cc:	1885883a 	add	r2,r3,r2
   223d0:	d0a91515 	stw	r2,-23468(gp)
			printf("\ngreen Lower Value increased to %d", green_vl);
   223d4:	d0a91517 	ldw	r2,-23468(gp)
   223d8:	100b883a 	mov	r5,r2
   223dc:	010000f4 	movhi	r4,3
   223e0:	21137104 	addi	r4,r4,19908
   223e4:	00250400 	call	25040 <printf>
			break;
   223e8:	00024106 	br	22cf0 <main+0x15ac>
		}
		case 'y': {
			IOWR(0x42000, EEE_IMGPROC_MSG, 0x100a);
   223ec:	00c40284 	movi	r3,4106
   223f0:	00800134 	movhi	r2,4
   223f4:	10880104 	addi	r2,r2,8196
   223f8:	10c00035 	stwio	r3,0(r2)
			green_vl -= hue_step;
   223fc:	d0e91517 	ldw	r3,-23468(gp)
   22400:	e0bff717 	ldw	r2,-36(fp)
   22404:	1885c83a 	sub	r2,r3,r2
   22408:	d0a91515 	stw	r2,-23468(gp)
			printf("\ngreen Lower Value decreased to %d", green_vl);
   2240c:	d0a91517 	ldw	r2,-23468(gp)
   22410:	100b883a 	mov	r5,r2
   22414:	010000f4 	movhi	r4,3
   22418:	21137a04 	addi	r4,r4,19944
   2241c:	00250400 	call	25040 <printf>
			break;
   22420:	00023306 	br	22cf0 <main+0x15ac>
		}
		case '^': {
			IOWR(0x42000, EEE_IMGPROC_MSG, 0x100b);
   22424:	00c402c4 	movi	r3,4107
   22428:	00800134 	movhi	r2,4
   2242c:	10880104 	addi	r2,r2,8196
   22430:	10c00035 	stwio	r3,0(r2)
			green_vu += hue_step;
   22434:	d0e00a17 	ldw	r3,-32728(gp)
   22438:	e0bff717 	ldw	r2,-36(fp)
   2243c:	1885883a 	add	r2,r3,r2
   22440:	d0a00a15 	stw	r2,-32728(gp)
			printf("\ngreen Lower Value increased to %d", green_vu);
   22444:	d0a00a17 	ldw	r2,-32728(gp)
   22448:	100b883a 	mov	r5,r2
   2244c:	010000f4 	movhi	r4,3
   22450:	21137104 	addi	r4,r4,19908
   22454:	00250400 	call	25040 <printf>
			break;
   22458:	00022506 	br	22cf0 <main+0x15ac>
		}
		case '6': {
			IOWR(0x42000, EEE_IMGPROC_MSG, 0x100c);
   2245c:	00c40304 	movi	r3,4108
   22460:	00800134 	movhi	r2,4
   22464:	10880104 	addi	r2,r2,8196
   22468:	10c00035 	stwio	r3,0(r2)
			green_vu -= hue_step;
   2246c:	d0e00a17 	ldw	r3,-32728(gp)
   22470:	e0bff717 	ldw	r2,-36(fp)
   22474:	1885c83a 	sub	r2,r3,r2
   22478:	d0a00a15 	stw	r2,-32728(gp)
			printf("\ngreen Lower Value decreased to %d", green_vu);
   2247c:	d0a00a17 	ldw	r2,-32728(gp)
   22480:	100b883a 	mov	r5,r2
   22484:	010000f4 	movhi	r4,3
   22488:	21137a04 	addi	r4,r4,19944
   2248c:	00250400 	call	25040 <printf>
			break;
   22490:	00021706 	br	22cf0 <main+0x15ac>
		}


		//RED HSV COLOR MAPPING
		case 'Q': {
			IOWR(0x42000, EEE_IMGPROC_MSG, 0x2001);
   22494:	00c80044 	movi	r3,8193
   22498:	00800134 	movhi	r2,4
   2249c:	10880104 	addi	r2,r2,8196
   224a0:	10c00035 	stwio	r3,0(r2)
			red_hl += hue_step;
   224a4:	d0e91617 	ldw	r3,-23464(gp)
   224a8:	e0bff717 	ldw	r2,-36(fp)
   224ac:	1885883a 	add	r2,r3,r2
   224b0:	d0a91615 	stw	r2,-23464(gp)
			printf("\nRed Lower Hue increased to %d", red_hl);
   224b4:	d0a91617 	ldw	r2,-23464(gp)
   224b8:	100b883a 	mov	r5,r2
   224bc:	010000f4 	movhi	r4,3
   224c0:	21138304 	addi	r4,r4,19980
   224c4:	00250400 	call	25040 <printf>
			break;
   224c8:	00020906 	br	22cf0 <main+0x15ac>
		}
		case 'q': {
			IOWR(0x42000, EEE_IMGPROC_MSG, 0x2002);
   224cc:	00c80084 	movi	r3,8194
   224d0:	00800134 	movhi	r2,4
   224d4:	10880104 	addi	r2,r2,8196
   224d8:	10c00035 	stwio	r3,0(r2)
			red_hl -= hue_step;
   224dc:	d0e91617 	ldw	r3,-23464(gp)
   224e0:	e0bff717 	ldw	r2,-36(fp)
   224e4:	1885c83a 	sub	r2,r3,r2
   224e8:	d0a91615 	stw	r2,-23464(gp)
			printf("\nRed Lower Hue decreased to %d", red_hl);
   224ec:	d0a91617 	ldw	r2,-23464(gp)
   224f0:	100b883a 	mov	r5,r2
   224f4:	010000f4 	movhi	r4,3
   224f8:	21138b04 	addi	r4,r4,20012
   224fc:	00250400 	call	25040 <printf>
			break;
   22500:	0001fb06 	br	22cf0 <main+0x15ac>
		}
		case '!': {
			IOWR(0x42000, EEE_IMGPROC_MSG, 0x2003);
   22504:	00c800c4 	movi	r3,8195
   22508:	00800134 	movhi	r2,4
   2250c:	10880104 	addi	r2,r2,8196
   22510:	10c00035 	stwio	r3,0(r2)
			red_hu += hue_step;
   22514:	d0e00b17 	ldw	r3,-32724(gp)
   22518:	e0bff717 	ldw	r2,-36(fp)
   2251c:	1885883a 	add	r2,r3,r2
   22520:	d0a00b15 	stw	r2,-32724(gp)
			printf("\nRed upper Hue increased to %d", red_hu);
   22524:	d0a00b17 	ldw	r2,-32724(gp)
   22528:	100b883a 	mov	r5,r2
   2252c:	010000f4 	movhi	r4,3
   22530:	21139304 	addi	r4,r4,20044
   22534:	00250400 	call	25040 <printf>
			break;
   22538:	0001ed06 	br	22cf0 <main+0x15ac>
		}
		case '1': {
			IOWR(0x42000, EEE_IMGPROC_MSG, 0x2004);
   2253c:	00c80104 	movi	r3,8196
   22540:	00800134 	movhi	r2,4
   22544:	10880104 	addi	r2,r2,8196
   22548:	10c00035 	stwio	r3,0(r2)
			red_hu -= hue_step;
   2254c:	d0e00b17 	ldw	r3,-32724(gp)
   22550:	e0bff717 	ldw	r2,-36(fp)
   22554:	1885c83a 	sub	r2,r3,r2
   22558:	d0a00b15 	stw	r2,-32724(gp)
			printf("\nRed upper Hue decreased to %d", red_hu);
   2255c:	d0a00b17 	ldw	r2,-32724(gp)
   22560:	100b883a 	mov	r5,r2
   22564:	010000f4 	movhi	r4,3
   22568:	21139b04 	addi	r4,r4,20076
   2256c:	00250400 	call	25040 <printf>
			break;
   22570:	0001df06 	br	22cf0 <main+0x15ac>
		}
		case 'W': {
			IOWR(0x42000, EEE_IMGPROC_MSG, 0x2005);
   22574:	00c80144 	movi	r3,8197
   22578:	00800134 	movhi	r2,4
   2257c:	10880104 	addi	r2,r2,8196
   22580:	10c00035 	stwio	r3,0(r2)
			red_sl += hue_step;
   22584:	d0e91717 	ldw	r3,-23460(gp)
   22588:	e0bff717 	ldw	r2,-36(fp)
   2258c:	1885883a 	add	r2,r3,r2
   22590:	d0a91715 	stw	r2,-23460(gp)
			printf("\nred Lower Saturation increased to %d", red_sl);
   22594:	d0a91717 	ldw	r2,-23460(gp)
   22598:	100b883a 	mov	r5,r2
   2259c:	010000f4 	movhi	r4,3
   225a0:	2113a304 	addi	r4,r4,20108
   225a4:	00250400 	call	25040 <printf>
			break;
   225a8:	0001d106 	br	22cf0 <main+0x15ac>
		}
		case 'w': {
			IOWR(0x42000, EEE_IMGPROC_MSG, 0x2006);
   225ac:	00c80184 	movi	r3,8198
   225b0:	00800134 	movhi	r2,4
   225b4:	10880104 	addi	r2,r2,8196
   225b8:	10c00035 	stwio	r3,0(r2)
			red_sl -= hue_step;
   225bc:	d0e91717 	ldw	r3,-23460(gp)
   225c0:	e0bff717 	ldw	r2,-36(fp)
   225c4:	1885c83a 	sub	r2,r3,r2
   225c8:	d0a91715 	stw	r2,-23460(gp)
			printf("\nred Lower Saturation decreased to %d", red_sl);
   225cc:	d0a91717 	ldw	r2,-23460(gp)
   225d0:	100b883a 	mov	r5,r2
   225d4:	010000f4 	movhi	r4,3
   225d8:	2113ad04 	addi	r4,r4,20148
   225dc:	00250400 	call	25040 <printf>
			break;
   225e0:	0001c306 	br	22cf0 <main+0x15ac>
		}
		case '@': {
			IOWR(0x42000, EEE_IMGPROC_MSG, 0x2007);
   225e4:	00c801c4 	movi	r3,8199
   225e8:	00800134 	movhi	r2,4
   225ec:	10880104 	addi	r2,r2,8196
   225f0:	10c00035 	stwio	r3,0(r2)
			red_su += hue_step;
   225f4:	d0e00c17 	ldw	r3,-32720(gp)
   225f8:	e0bff717 	ldw	r2,-36(fp)
   225fc:	1885883a 	add	r2,r3,r2
   22600:	d0a00c15 	stw	r2,-32720(gp)
			printf("\nred Upper Saturation increased to %d", red_su);
   22604:	d0a00c17 	ldw	r2,-32720(gp)
   22608:	100b883a 	mov	r5,r2
   2260c:	010000f4 	movhi	r4,3
   22610:	2113b704 	addi	r4,r4,20188
   22614:	00250400 	call	25040 <printf>
			break;
   22618:	0001b506 	br	22cf0 <main+0x15ac>
		}
		case '2': {
			IOWR(0x42000, EEE_IMGPROC_MSG, 0x2008);
   2261c:	00c80204 	movi	r3,8200
   22620:	00800134 	movhi	r2,4
   22624:	10880104 	addi	r2,r2,8196
   22628:	10c00035 	stwio	r3,0(r2)
			red_su -= hue_step;
   2262c:	d0e00c17 	ldw	r3,-32720(gp)
   22630:	e0bff717 	ldw	r2,-36(fp)
   22634:	1885c83a 	sub	r2,r3,r2
   22638:	d0a00c15 	stw	r2,-32720(gp)
			printf("\nred Upper Saturation decreased to %d", red_su);
   2263c:	d0a00c17 	ldw	r2,-32720(gp)
   22640:	100b883a 	mov	r5,r2
   22644:	010000f4 	movhi	r4,3
   22648:	2113c104 	addi	r4,r4,20228
   2264c:	00250400 	call	25040 <printf>
			break;
   22650:	0001a706 	br	22cf0 <main+0x15ac>
		}
		case 'E': {
			IOWR(0x42000, EEE_IMGPROC_MSG, 0x2009);
   22654:	00c80244 	movi	r3,8201
   22658:	00800134 	movhi	r2,4
   2265c:	10880104 	addi	r2,r2,8196
   22660:	10c00035 	stwio	r3,0(r2)
			red_vl += hue_step;
   22664:	d0e91817 	ldw	r3,-23456(gp)
   22668:	e0bff717 	ldw	r2,-36(fp)
   2266c:	1885883a 	add	r2,r3,r2
   22670:	d0a91815 	stw	r2,-23456(gp)
			printf("\nred Lower Value increased to %d", red_vl);
   22674:	d0a91817 	ldw	r2,-23456(gp)
   22678:	100b883a 	mov	r5,r2
   2267c:	010000f4 	movhi	r4,3
   22680:	2113cb04 	addi	r4,r4,20268
   22684:	00250400 	call	25040 <printf>
			break;
   22688:	00019906 	br	22cf0 <main+0x15ac>
		}
		case 'e': {
			IOWR(0x42000, EEE_IMGPROC_MSG, 0x200a);
   2268c:	00c80284 	movi	r3,8202
   22690:	00800134 	movhi	r2,4
   22694:	10880104 	addi	r2,r2,8196
   22698:	10c00035 	stwio	r3,0(r2)
			red_vl -= hue_step;
   2269c:	d0e91817 	ldw	r3,-23456(gp)
   226a0:	e0bff717 	ldw	r2,-36(fp)
   226a4:	1885c83a 	sub	r2,r3,r2
   226a8:	d0a91815 	stw	r2,-23456(gp)
			printf("\nred Lower Value decreased to %d", red_vl);
   226ac:	d0a91817 	ldw	r2,-23456(gp)
   226b0:	100b883a 	mov	r5,r2
   226b4:	010000f4 	movhi	r4,3
   226b8:	2113d404 	addi	r4,r4,20304
   226bc:	00250400 	call	25040 <printf>
			break;
   226c0:	00018b06 	br	22cf0 <main+0x15ac>
		}
		case '#': {
			IOWR(0x42000, EEE_IMGPROC_MSG, 0x200b);
   226c4:	00c802c4 	movi	r3,8203
   226c8:	00800134 	movhi	r2,4
   226cc:	10880104 	addi	r2,r2,8196
   226d0:	10c00035 	stwio	r3,0(r2)
			red_vu += hue_step;
   226d4:	d0e00d17 	ldw	r3,-32716(gp)
   226d8:	e0bff717 	ldw	r2,-36(fp)
   226dc:	1885883a 	add	r2,r3,r2
   226e0:	d0a00d15 	stw	r2,-32716(gp)
			printf("\nred Upper Value increased to %d", red_vu);
   226e4:	d0a00d17 	ldw	r2,-32716(gp)
   226e8:	100b883a 	mov	r5,r2
   226ec:	010000f4 	movhi	r4,3
   226f0:	2113dd04 	addi	r4,r4,20340
   226f4:	00250400 	call	25040 <printf>
			break;
   226f8:	00017d06 	br	22cf0 <main+0x15ac>
		}
		case '3': {
			IOWR(0x42000, EEE_IMGPROC_MSG, 0x200c);
   226fc:	00c80304 	movi	r3,8204
   22700:	00800134 	movhi	r2,4
   22704:	10880104 	addi	r2,r2,8196
   22708:	10c00035 	stwio	r3,0(r2)
			red_vu -= hue_step;
   2270c:	d0e00d17 	ldw	r3,-32716(gp)
   22710:	e0bff717 	ldw	r2,-36(fp)
   22714:	1885c83a 	sub	r2,r3,r2
   22718:	d0a00d15 	stw	r2,-32716(gp)
			printf("\nred Upper Saturation decreased to %d", red_vu);
   2271c:	d0a00d17 	ldw	r2,-32716(gp)
   22720:	100b883a 	mov	r5,r2
   22724:	010000f4 	movhi	r4,3
   22728:	2113c104 	addi	r4,r4,20228
   2272c:	00250400 	call	25040 <printf>
			break;
   22730:	00016f06 	br	22cf0 <main+0x15ac>
		}

		//YELLOW HSV COLOR MAPPING
		case 'Z': {
			IOWR(0x42000, EEE_IMGPROC_MSG, 0x3001);
   22734:	00cc0044 	movi	r3,12289
   22738:	00800134 	movhi	r2,4
   2273c:	10880104 	addi	r2,r2,8196
   22740:	10c00035 	stwio	r3,0(r2)
			yellow_hl += hue_step;
   22744:	d0e00e17 	ldw	r3,-32712(gp)
   22748:	e0bff717 	ldw	r2,-36(fp)
   2274c:	1885883a 	add	r2,r3,r2
   22750:	d0a00e15 	stw	r2,-32712(gp)
			printf("\nYellow Lower Hue increased to %d", yellow_hl);
   22754:	d0a00e17 	ldw	r2,-32712(gp)
   22758:	100b883a 	mov	r5,r2
   2275c:	010000f4 	movhi	r4,3
   22760:	2113e604 	addi	r4,r4,20376
   22764:	00250400 	call	25040 <printf>
			break;
   22768:	00016106 	br	22cf0 <main+0x15ac>
		}
		case 'z': {
			IOWR(0x42000, EEE_IMGPROC_MSG, 0x3002);
   2276c:	00cc0084 	movi	r3,12290
   22770:	00800134 	movhi	r2,4
   22774:	10880104 	addi	r2,r2,8196
   22778:	10c00035 	stwio	r3,0(r2)
			yellow_hl -= hue_step;
   2277c:	d0e00e17 	ldw	r3,-32712(gp)
   22780:	e0bff717 	ldw	r2,-36(fp)
   22784:	1885c83a 	sub	r2,r3,r2
   22788:	d0a00e15 	stw	r2,-32712(gp)
			printf("\nYellow Lower Hue decreased to %d", yellow_hl);
   2278c:	d0a00e17 	ldw	r2,-32712(gp)
   22790:	100b883a 	mov	r5,r2
   22794:	010000f4 	movhi	r4,3
   22798:	2113ef04 	addi	r4,r4,20412
   2279c:	00250400 	call	25040 <printf>
			break;
   227a0:	00015306 	br	22cf0 <main+0x15ac>
		}
		case 'A': {
			IOWR(0x42000, EEE_IMGPROC_MSG, 0x3003);
   227a4:	00cc00c4 	movi	r3,12291
   227a8:	00800134 	movhi	r2,4
   227ac:	10880104 	addi	r2,r2,8196
   227b0:	10c00035 	stwio	r3,0(r2)
			yellow_hu += hue_step;
   227b4:	d0e00f17 	ldw	r3,-32708(gp)
   227b8:	e0bff717 	ldw	r2,-36(fp)
   227bc:	1885883a 	add	r2,r3,r2
   227c0:	d0a00f15 	stw	r2,-32708(gp)
			printf("\nYellow upper Hue increased to %d", yellow_hu);
   227c4:	d0a00f17 	ldw	r2,-32708(gp)
   227c8:	100b883a 	mov	r5,r2
   227cc:	010000f4 	movhi	r4,3
   227d0:	2113f804 	addi	r4,r4,20448
   227d4:	00250400 	call	25040 <printf>
			break;
   227d8:	00014506 	br	22cf0 <main+0x15ac>
		}
		case 'a': {
			IOWR(0x42000, EEE_IMGPROC_MSG, 0x3004);
   227dc:	00cc0104 	movi	r3,12292
   227e0:	00800134 	movhi	r2,4
   227e4:	10880104 	addi	r2,r2,8196
   227e8:	10c00035 	stwio	r3,0(r2)
			yellow_hu -= hue_step;
   227ec:	d0e00f17 	ldw	r3,-32708(gp)
   227f0:	e0bff717 	ldw	r2,-36(fp)
   227f4:	1885c83a 	sub	r2,r3,r2
   227f8:	d0a00f15 	stw	r2,-32708(gp)
			printf("\nYellow upper Hue decreased to %d", yellow_hu);
   227fc:	d0a00f17 	ldw	r2,-32708(gp)
   22800:	100b883a 	mov	r5,r2
   22804:	010000f4 	movhi	r4,3
   22808:	21140104 	addi	r4,r4,20484
   2280c:	00250400 	call	25040 <printf>
			break;
   22810:	00013706 	br	22cf0 <main+0x15ac>
		}
		case 'X': {
			IOWR(0x42000, EEE_IMGPROC_MSG, 0x3005);
   22814:	00cc0144 	movi	r3,12293
   22818:	00800134 	movhi	r2,4
   2281c:	10880104 	addi	r2,r2,8196
   22820:	10c00035 	stwio	r3,0(r2)
			yellow_sl += hue_step;
   22824:	d0e91917 	ldw	r3,-23452(gp)
   22828:	e0bff717 	ldw	r2,-36(fp)
   2282c:	1885883a 	add	r2,r3,r2
   22830:	d0a91915 	stw	r2,-23452(gp)
			printf("\nyellow Lower Saturation increased to %d", yellow_sl);
   22834:	d0a91917 	ldw	r2,-23452(gp)
   22838:	100b883a 	mov	r5,r2
   2283c:	010000f4 	movhi	r4,3
   22840:	21140a04 	addi	r4,r4,20520
   22844:	00250400 	call	25040 <printf>
			break;
   22848:	00012906 	br	22cf0 <main+0x15ac>
		}
		case 'x': {
			IOWR(0x42000, EEE_IMGPROC_MSG, 0x3006);
   2284c:	00cc0184 	movi	r3,12294
   22850:	00800134 	movhi	r2,4
   22854:	10880104 	addi	r2,r2,8196
   22858:	10c00035 	stwio	r3,0(r2)
			yellow_sl -= hue_step;
   2285c:	d0e91917 	ldw	r3,-23452(gp)
   22860:	e0bff717 	ldw	r2,-36(fp)
   22864:	1885c83a 	sub	r2,r3,r2
   22868:	d0a91915 	stw	r2,-23452(gp)
			printf("\nyellow Lower Saturation decreased to %d", yellow_sl);
   2286c:	d0a91917 	ldw	r2,-23452(gp)
   22870:	100b883a 	mov	r5,r2
   22874:	010000f4 	movhi	r4,3
   22878:	21141504 	addi	r4,r4,20564
   2287c:	00250400 	call	25040 <printf>
			break;
   22880:	00011b06 	br	22cf0 <main+0x15ac>
		}
		case 'S': {
			IOWR(0x42000, EEE_IMGPROC_MSG, 0x3007);
   22884:	00cc01c4 	movi	r3,12295
   22888:	00800134 	movhi	r2,4
   2288c:	10880104 	addi	r2,r2,8196
   22890:	10c00035 	stwio	r3,0(r2)
			yellow_su += hue_step;
   22894:	d0e01017 	ldw	r3,-32704(gp)
   22898:	e0bff717 	ldw	r2,-36(fp)
   2289c:	1885883a 	add	r2,r3,r2
   228a0:	d0a01015 	stw	r2,-32704(gp)
			printf("\nyellow Upper Saturation increased to %d", yellow_su);
   228a4:	d0a01017 	ldw	r2,-32704(gp)
   228a8:	100b883a 	mov	r5,r2
   228ac:	010000f4 	movhi	r4,3
   228b0:	21142004 	addi	r4,r4,20608
   228b4:	00250400 	call	25040 <printf>
			break;
   228b8:	00010d06 	br	22cf0 <main+0x15ac>
		}
		case 's': {
			IOWR(0x42000, EEE_IMGPROC_MSG, 0x3008);
   228bc:	00cc0204 	movi	r3,12296
   228c0:	00800134 	movhi	r2,4
   228c4:	10880104 	addi	r2,r2,8196
   228c8:	10c00035 	stwio	r3,0(r2)
			yellow_su -= hue_step;
   228cc:	d0e01017 	ldw	r3,-32704(gp)
   228d0:	e0bff717 	ldw	r2,-36(fp)
   228d4:	1885c83a 	sub	r2,r3,r2
   228d8:	d0a01015 	stw	r2,-32704(gp)
			printf("\nyellow Upper Saturation decreased to %d", yellow_su);
   228dc:	d0a01017 	ldw	r2,-32704(gp)
   228e0:	100b883a 	mov	r5,r2
   228e4:	010000f4 	movhi	r4,3
   228e8:	21142b04 	addi	r4,r4,20652
   228ec:	00250400 	call	25040 <printf>
			break;
   228f0:	0000ff06 	br	22cf0 <main+0x15ac>
		}
		case 'C': {
			IOWR(0x42000, EEE_IMGPROC_MSG, 0x3009);
   228f4:	00cc0244 	movi	r3,12297
   228f8:	00800134 	movhi	r2,4
   228fc:	10880104 	addi	r2,r2,8196
   22900:	10c00035 	stwio	r3,0(r2)
			yellow_vl += hue_step;
   22904:	d0e91a17 	ldw	r3,-23448(gp)
   22908:	e0bff717 	ldw	r2,-36(fp)
   2290c:	1885883a 	add	r2,r3,r2
   22910:	d0a91a15 	stw	r2,-23448(gp)
			printf("\nyellow Lower Value increased to %d", yellow_vl);
   22914:	d0a91a17 	ldw	r2,-23448(gp)
   22918:	100b883a 	mov	r5,r2
   2291c:	010000f4 	movhi	r4,3
   22920:	21143604 	addi	r4,r4,20696
   22924:	00250400 	call	25040 <printf>
			break;
   22928:	0000f106 	br	22cf0 <main+0x15ac>
		}
		case 'c': {
			IOWR(0x42000, EEE_IMGPROC_MSG, 0x300a);
   2292c:	00cc0284 	movi	r3,12298
   22930:	00800134 	movhi	r2,4
   22934:	10880104 	addi	r2,r2,8196
   22938:	10c00035 	stwio	r3,0(r2)
			yellow_vl -= hue_step;
   2293c:	d0e91a17 	ldw	r3,-23448(gp)
   22940:	e0bff717 	ldw	r2,-36(fp)
   22944:	1885c83a 	sub	r2,r3,r2
   22948:	d0a91a15 	stw	r2,-23448(gp)
			printf("\nyellow Lower Value decreased to %d", yellow_vl);
   2294c:	d0a91a17 	ldw	r2,-23448(gp)
   22950:	100b883a 	mov	r5,r2
   22954:	010000f4 	movhi	r4,3
   22958:	21143f04 	addi	r4,r4,20732
   2295c:	00250400 	call	25040 <printf>
			break;
   22960:	0000e306 	br	22cf0 <main+0x15ac>
		}
		case 'D': {
			IOWR(0x42000, EEE_IMGPROC_MSG, 0x300b);
   22964:	00cc02c4 	movi	r3,12299
   22968:	00800134 	movhi	r2,4
   2296c:	10880104 	addi	r2,r2,8196
   22970:	10c00035 	stwio	r3,0(r2)
			yellow_vu += hue_step;
   22974:	d0e01117 	ldw	r3,-32700(gp)
   22978:	e0bff717 	ldw	r2,-36(fp)
   2297c:	1885883a 	add	r2,r3,r2
   22980:	d0a01115 	stw	r2,-32700(gp)
			printf("\nyellow Upper Value increased to %d", yellow_vu);
   22984:	d0a01117 	ldw	r2,-32700(gp)
   22988:	100b883a 	mov	r5,r2
   2298c:	010000f4 	movhi	r4,3
   22990:	21144804 	addi	r4,r4,20768
   22994:	00250400 	call	25040 <printf>
			break;
   22998:	0000d506 	br	22cf0 <main+0x15ac>
		}
		case 'd': {
			IOWR(0x42000, EEE_IMGPROC_MSG, 0x300c);
   2299c:	00cc0304 	movi	r3,12300
   229a0:	00800134 	movhi	r2,4
   229a4:	10880104 	addi	r2,r2,8196
   229a8:	10c00035 	stwio	r3,0(r2)
			yellow_vu -= hue_step;
   229ac:	d0e01117 	ldw	r3,-32700(gp)
   229b0:	e0bff717 	ldw	r2,-36(fp)
   229b4:	1885c83a 	sub	r2,r3,r2
   229b8:	d0a01115 	stw	r2,-32700(gp)
			printf("\nyellow Upper Value decreased to %d", yellow_vu);
   229bc:	d0a01117 	ldw	r2,-32700(gp)
   229c0:	100b883a 	mov	r5,r2
   229c4:	010000f4 	movhi	r4,3
   229c8:	21145104 	addi	r4,r4,20804
   229cc:	00250400 	call	25040 <printf>
			break;
   229d0:	0000c706 	br	22cf0 <main+0x15ac>
		}

		//PINK HSV COLOR MAPPING
		case 'V': {
			IOWR(0x42000, EEE_IMGPROC_MSG, 0x4001);
   229d4:	00d00044 	movi	r3,16385
   229d8:	00800134 	movhi	r2,4
   229dc:	10880104 	addi	r2,r2,8196
   229e0:	10c00035 	stwio	r3,0(r2)
			pink_hl += hue_step;
   229e4:	d0e01217 	ldw	r3,-32696(gp)
   229e8:	e0bff717 	ldw	r2,-36(fp)
   229ec:	1885883a 	add	r2,r3,r2
   229f0:	d0a01215 	stw	r2,-32696(gp)
			printf("\nPink Lower Hue increased to %d", pink_hl);
   229f4:	d0a01217 	ldw	r2,-32696(gp)
   229f8:	100b883a 	mov	r5,r2
   229fc:	010000f4 	movhi	r4,3
   22a00:	21145a04 	addi	r4,r4,20840
   22a04:	00250400 	call	25040 <printf>
			break;
   22a08:	0000b906 	br	22cf0 <main+0x15ac>
		}
		case 'v': {
			IOWR(0x42000, EEE_IMGPROC_MSG, 0x4002);
   22a0c:	00d00084 	movi	r3,16386
   22a10:	00800134 	movhi	r2,4
   22a14:	10880104 	addi	r2,r2,8196
   22a18:	10c00035 	stwio	r3,0(r2)
			pink_hl -= hue_step;
   22a1c:	d0e01217 	ldw	r3,-32696(gp)
   22a20:	e0bff717 	ldw	r2,-36(fp)
   22a24:	1885c83a 	sub	r2,r3,r2
   22a28:	d0a01215 	stw	r2,-32696(gp)
			printf("\nPink Lower Hue decreased to %d", pink_hl);
   22a2c:	d0a01217 	ldw	r2,-32696(gp)
   22a30:	100b883a 	mov	r5,r2
   22a34:	010000f4 	movhi	r4,3
   22a38:	21146204 	addi	r4,r4,20872
   22a3c:	00250400 	call	25040 <printf>
			break;
   22a40:	0000ab06 	br	22cf0 <main+0x15ac>
		}
		case 'F': {
			IOWR(0x42000, EEE_IMGPROC_MSG, 0x4003);
   22a44:	00d000c4 	movi	r3,16387
   22a48:	00800134 	movhi	r2,4
   22a4c:	10880104 	addi	r2,r2,8196
   22a50:	10c00035 	stwio	r3,0(r2)
			pink_hu += hue_step;
   22a54:	d0e01317 	ldw	r3,-32692(gp)
   22a58:	e0bff717 	ldw	r2,-36(fp)
   22a5c:	1885883a 	add	r2,r3,r2
   22a60:	d0a01315 	stw	r2,-32692(gp)
			printf("\nPink upper Hue increased to %d", pink_hu);
   22a64:	d0a01317 	ldw	r2,-32692(gp)
   22a68:	100b883a 	mov	r5,r2
   22a6c:	010000f4 	movhi	r4,3
   22a70:	21146a04 	addi	r4,r4,20904
   22a74:	00250400 	call	25040 <printf>
			break;
   22a78:	00009d06 	br	22cf0 <main+0x15ac>
		}
		case 'f': {
			IOWR(0x42000, EEE_IMGPROC_MSG, 0x4004);///
   22a7c:	00d00104 	movi	r3,16388
   22a80:	00800134 	movhi	r2,4
   22a84:	10880104 	addi	r2,r2,8196
   22a88:	10c00035 	stwio	r3,0(r2)
			pink_hu -= hue_step;
   22a8c:	d0e01317 	ldw	r3,-32692(gp)
   22a90:	e0bff717 	ldw	r2,-36(fp)
   22a94:	1885c83a 	sub	r2,r3,r2
   22a98:	d0a01315 	stw	r2,-32692(gp)
			printf("\nPink upper Hue decreased to %d", pink_hu);
   22a9c:	d0a01317 	ldw	r2,-32692(gp)
   22aa0:	100b883a 	mov	r5,r2
   22aa4:	010000f4 	movhi	r4,3
   22aa8:	21147204 	addi	r4,r4,20936
   22aac:	00250400 	call	25040 <printf>
			break;
   22ab0:	00008f06 	br	22cf0 <main+0x15ac>
		}
		case 'B': {
				IOWR(0x42000, EEE_IMGPROC_MSG, 0x4005);
   22ab4:	00d00144 	movi	r3,16389
   22ab8:	00800134 	movhi	r2,4
   22abc:	10880104 	addi	r2,r2,8196
   22ac0:	10c00035 	stwio	r3,0(r2)
			pink_sl += hue_step;
   22ac4:	d0e91b17 	ldw	r3,-23444(gp)
   22ac8:	e0bff717 	ldw	r2,-36(fp)
   22acc:	1885883a 	add	r2,r3,r2
   22ad0:	d0a91b15 	stw	r2,-23444(gp)
			printf("\npink Lower Saturation increased to %d", pink_sl);
   22ad4:	d0a91b17 	ldw	r2,-23444(gp)
   22ad8:	100b883a 	mov	r5,r2
   22adc:	010000f4 	movhi	r4,3
   22ae0:	21147a04 	addi	r4,r4,20968
   22ae4:	00250400 	call	25040 <printf>
			break;
   22ae8:	00008106 	br	22cf0 <main+0x15ac>
		}
		case 'b': {
			IOWR(0x42000, EEE_IMGPROC_MSG, 0x4006);
   22aec:	00d00184 	movi	r3,16390
   22af0:	00800134 	movhi	r2,4
   22af4:	10880104 	addi	r2,r2,8196
   22af8:	10c00035 	stwio	r3,0(r2)
			pink_sl -= hue_step;
   22afc:	d0e91b17 	ldw	r3,-23444(gp)
   22b00:	e0bff717 	ldw	r2,-36(fp)
   22b04:	1885c83a 	sub	r2,r3,r2
   22b08:	d0a91b15 	stw	r2,-23444(gp)
			printf("\npink Lower Saturation decreased to %d", pink_sl);
   22b0c:	d0a91b17 	ldw	r2,-23444(gp)
   22b10:	100b883a 	mov	r5,r2
   22b14:	010000f4 	movhi	r4,3
   22b18:	21148404 	addi	r4,r4,21008
   22b1c:	00250400 	call	25040 <printf>
			break;
   22b20:	00007306 	br	22cf0 <main+0x15ac>
		}
		case 'G': {
			IOWR(0x42000, EEE_IMGPROC_MSG, 0x4007);
   22b24:	00d001c4 	movi	r3,16391
   22b28:	00800134 	movhi	r2,4
   22b2c:	10880104 	addi	r2,r2,8196
   22b30:	10c00035 	stwio	r3,0(r2)
			pink_su += hue_step;
   22b34:	d0e01417 	ldw	r3,-32688(gp)
   22b38:	e0bff717 	ldw	r2,-36(fp)
   22b3c:	1885883a 	add	r2,r3,r2
   22b40:	d0a01415 	stw	r2,-32688(gp)
			printf("\npink Upper Saturation increased to %d", pink_su);
   22b44:	d0a01417 	ldw	r2,-32688(gp)
   22b48:	100b883a 	mov	r5,r2
   22b4c:	010000f4 	movhi	r4,3
   22b50:	21148e04 	addi	r4,r4,21048
   22b54:	00250400 	call	25040 <printf>
			break;
   22b58:	00006506 	br	22cf0 <main+0x15ac>
		}
		case 'g': {
			IOWR(0x42000, EEE_IMGPROC_MSG, 0x4008);
   22b5c:	00d00204 	movi	r3,16392
   22b60:	00800134 	movhi	r2,4
   22b64:	10880104 	addi	r2,r2,8196
   22b68:	10c00035 	stwio	r3,0(r2)
			pink_su -= hue_step;
   22b6c:	d0e01417 	ldw	r3,-32688(gp)
   22b70:	e0bff717 	ldw	r2,-36(fp)
   22b74:	1885c83a 	sub	r2,r3,r2
   22b78:	d0a01415 	stw	r2,-32688(gp)
			printf("\npink Upper Saturation decreased to %d", pink_su);
   22b7c:	d0a01417 	ldw	r2,-32688(gp)
   22b80:	100b883a 	mov	r5,r2
   22b84:	010000f4 	movhi	r4,3
   22b88:	21149804 	addi	r4,r4,21088
   22b8c:	00250400 	call	25040 <printf>
			break;
   22b90:	00005706 	br	22cf0 <main+0x15ac>
		}
		case 'N': {
			IOWR(0x42000, EEE_IMGPROC_MSG, 0x4009);
   22b94:	00d00244 	movi	r3,16393
   22b98:	00800134 	movhi	r2,4
   22b9c:	10880104 	addi	r2,r2,8196
   22ba0:	10c00035 	stwio	r3,0(r2)
			pink_vl += hue_step;
   22ba4:	d0e91c17 	ldw	r3,-23440(gp)
   22ba8:	e0bff717 	ldw	r2,-36(fp)
   22bac:	1885883a 	add	r2,r3,r2
   22bb0:	d0a91c15 	stw	r2,-23440(gp)
			printf("\npink Lower Value increased to %d", pink_vl);
   22bb4:	d0a91c17 	ldw	r2,-23440(gp)
   22bb8:	100b883a 	mov	r5,r2
   22bbc:	010000f4 	movhi	r4,3
   22bc0:	2114a204 	addi	r4,r4,21128
   22bc4:	00250400 	call	25040 <printf>
			break;
   22bc8:	00004906 	br	22cf0 <main+0x15ac>
		}
		case 'n': {
			IOWR(0x42000, EEE_IMGPROC_MSG, 0x400a);
   22bcc:	00d00284 	movi	r3,16394
   22bd0:	00800134 	movhi	r2,4
   22bd4:	10880104 	addi	r2,r2,8196
   22bd8:	10c00035 	stwio	r3,0(r2)
			pink_vl -= hue_step;
   22bdc:	d0e91c17 	ldw	r3,-23440(gp)
   22be0:	e0bff717 	ldw	r2,-36(fp)
   22be4:	1885c83a 	sub	r2,r3,r2
   22be8:	d0a91c15 	stw	r2,-23440(gp)
			printf("\npink Lower Value decreased to %d", pink_vl);
   22bec:	d0a91c17 	ldw	r2,-23440(gp)
   22bf0:	100b883a 	mov	r5,r2
   22bf4:	010000f4 	movhi	r4,3
   22bf8:	2114ab04 	addi	r4,r4,21164
   22bfc:	00250400 	call	25040 <printf>
			break;
   22c00:	00003b06 	br	22cf0 <main+0x15ac>
		}
		case 'H': {
			IOWR(0x42000, EEE_IMGPROC_MSG, 0x400b);
   22c04:	00d002c4 	movi	r3,16395
   22c08:	00800134 	movhi	r2,4
   22c0c:	10880104 	addi	r2,r2,8196
   22c10:	10c00035 	stwio	r3,0(r2)
			pink_vu += hue_step;
   22c14:	d0e01517 	ldw	r3,-32684(gp)
   22c18:	e0bff717 	ldw	r2,-36(fp)
   22c1c:	1885883a 	add	r2,r3,r2
   22c20:	d0a01515 	stw	r2,-32684(gp)
			printf("\npink Upper Value increased to %d", pink_vu);
   22c24:	d0a01517 	ldw	r2,-32684(gp)
   22c28:	100b883a 	mov	r5,r2
   22c2c:	010000f4 	movhi	r4,3
   22c30:	2114b404 	addi	r4,r4,21200
   22c34:	00250400 	call	25040 <printf>
			break;
   22c38:	00002d06 	br	22cf0 <main+0x15ac>
		}
		case 'h': {
			IOWR(0x42000, EEE_IMGPROC_MSG, 0x400c);
   22c3c:	00d00304 	movi	r3,16396
   22c40:	00800134 	movhi	r2,4
   22c44:	10880104 	addi	r2,r2,8196
   22c48:	10c00035 	stwio	r3,0(r2)
			pink_vu -= hue_step;
   22c4c:	d0e01517 	ldw	r3,-32684(gp)
   22c50:	e0bff717 	ldw	r2,-36(fp)
   22c54:	1885c83a 	sub	r2,r3,r2
   22c58:	d0a01515 	stw	r2,-32684(gp)
			printf("\npink Upper Value decreased to %d", pink_vu);
   22c5c:	d0a01517 	ldw	r2,-32684(gp)
   22c60:	100b883a 	mov	r5,r2
   22c64:	010000f4 	movhi	r4,3
   22c68:	2114bd04 	addi	r4,r4,21236
   22c6c:	00250400 	call	25040 <printf>
			break;
   22c70:	00001f06 	br	22cf0 <main+0x15ac>
		}

		//Vision Modes
		case '/': {
			IOWR(0x42000, EEE_IMGPROC_MSG, 0x0100);
   22c74:	00c04004 	movi	r3,256
   22c78:	00800134 	movhi	r2,4
   22c7c:	10880104 	addi	r2,r2,8196
   22c80:	10c00035 	stwio	r3,0(r2)
			filtered+=1;
   22c84:	d0a91d17 	ldw	r2,-23436(gp)
   22c88:	10800044 	addi	r2,r2,1
   22c8c:	d0a91d15 	stw	r2,-23436(gp)
			if(filtered%2) {
   22c90:	d0a91d17 	ldw	r2,-23436(gp)
   22c94:	1080004c 	andi	r2,r2,1
   22c98:	10000426 	beq	r2,zero,22cac <main+0x1568>
				printf("\nFilter OFF\n");
   22c9c:	010000f4 	movhi	r4,3
   22ca0:	2114c604 	addi	r4,r4,21272
   22ca4:	002515c0 	call	2515c <puts>
			} else {
				printf("\nFilter ON\n");
			}
			break;
   22ca8:	00001106 	br	22cf0 <main+0x15ac>
			IOWR(0x42000, EEE_IMGPROC_MSG, 0x0100);
			filtered+=1;
			if(filtered%2) {
				printf("\nFilter OFF\n");
			} else {
				printf("\nFilter ON\n");
   22cac:	010000f4 	movhi	r4,3
   22cb0:	2114c904 	addi	r4,r4,21284
   22cb4:	002515c0 	call	2515c <puts>
			}
			break;
   22cb8:	00000d06 	br	22cf0 <main+0x15ac>
		}case ';': {
			if(mode == 0){
   22cbc:	d0a91e17 	ldw	r2,-23432(gp)
   22cc0:	1000061e 	bne	r2,zero,22cdc <main+0x1598>
				mode = 1;
   22cc4:	00800044 	movi	r2,1
   22cc8:	d0a91e15 	stw	r2,-23432(gp)
				printf("\nColor config mode ON\n" );
   22ccc:	010000f4 	movhi	r4,3
   22cd0:	2114cc04 	addi	r4,r4,21296
   22cd4:	002515c0 	call	2515c <puts>
			}else{
				mode = 0;
				printf("\nColor config mode OFF\n" );
			}
			break;
   22cd8:	00000406 	br	22cec <main+0x15a8>
		}case ';': {
			if(mode == 0){
				mode = 1;
				printf("\nColor config mode ON\n" );
			}else{
				mode = 0;
   22cdc:	d0291e15 	stw	zero,-23432(gp)
				printf("\nColor config mode OFF\n" );
   22ce0:	010000f4 	movhi	r4,3
   22ce4:	2114d204 	addi	r4,r4,21320
   22ce8:	002515c0 	call	2515c <puts>
			}
			break;
   22cec:	0001883a 	nop
		}

		}

		//Main loop delay
		usleep(10000);
   22cf0:	0109c404 	movi	r4,10000
   22cf4:	0031ed80 	call	31ed8 <usleep>

	};
   22cf8:	003af106 	br	218c0 <__alt_data_end+0xfffe18c0>

00022cfc <nSWAP16>:
	{0x0004,0x8047} // Configuration Control Register

};


alt_u16 nSWAP16(alt_u16 x){
   22cfc:	defffd04 	addi	sp,sp,-12
   22d00:	df000215 	stw	fp,8(sp)
   22d04:	df000204 	addi	fp,sp,8
   22d08:	2005883a 	mov	r2,r4
   22d0c:	e0bfff0d 	sth	r2,-4(fp)
	alt_u16 y;
	//y =  (((x) >> 8) & 0xff) | (((x) & 0xff) << 8);

//	y = x;
	y = (x >> 8) & 0x00ff;
   22d10:	e0bfff0b 	ldhu	r2,-4(fp)
   22d14:	1004d23a 	srli	r2,r2,8
   22d18:	e0bffe0d 	sth	r2,-8(fp)
	y |= (x << 8) & 0xff00;
   22d1c:	e0bfff0b 	ldhu	r2,-4(fp)
   22d20:	1004923a 	slli	r2,r2,8
   22d24:	1007883a 	mov	r3,r2
   22d28:	e0bffe0b 	ldhu	r2,-8(fp)
   22d2c:	1884b03a 	or	r2,r3,r2
   22d30:	e0bffe0d 	sth	r2,-8(fp)
	return y;
   22d34:	e0bffe0b 	ldhu	r2,-8(fp)
}
   22d38:	e037883a 	mov	sp,fp
   22d3c:	df000017 	ldw	fp,0(sp)
   22d40:	dec00104 	addi	sp,sp,4
   22d44:	f800283a 	ret

00022d48 <MipiBridgeRegWrite>:


void MipiBridgeRegWrite(alt_u16 Addr, alt_u16 Value){
   22d48:	defffa04 	addi	sp,sp,-24
   22d4c:	dfc00515 	stw	ra,20(sp)
   22d50:	df000415 	stw	fp,16(sp)
   22d54:	df000404 	addi	fp,sp,16
   22d58:	2007883a 	mov	r3,r4
   22d5c:	2805883a 	mov	r2,r5
   22d60:	e0fffe0d 	sth	r3,-8(fp)
   22d64:	e0bfff0d 	sth	r2,-4(fp)
	const alt_u8 device_address = MIPI_BRIDGE_I2C_ADDR;
   22d68:	00800704 	movi	r2,28
   22d6c:	e0bffd05 	stb	r2,-12(fp)
	OC_I2CL_Write(I2C_OPENCORES_MIPI_BASE, device_address, Addr, (alt_u8 *)&Value, sizeof(Value));
   22d70:	e0fffd03 	ldbu	r3,-12(fp)
   22d74:	e13ffe0b 	ldhu	r4,-8(fp)
   22d78:	e17fff04 	addi	r5,fp,-4
   22d7c:	00800084 	movi	r2,2
   22d80:	d8800015 	stw	r2,0(sp)
   22d84:	280f883a 	mov	r7,r5
   22d88:	200d883a 	mov	r6,r4
   22d8c:	180b883a 	mov	r5,r3
   22d90:	01000134 	movhi	r4,4
   22d94:	21041804 	addi	r4,r4,4192
   22d98:	0020bac0 	call	20bac <OC_I2CL_Write>
}
   22d9c:	0001883a 	nop
   22da0:	e037883a 	mov	sp,fp
   22da4:	dfc00117 	ldw	ra,4(sp)
   22da8:	df000017 	ldw	fp,0(sp)
   22dac:	dec00204 	addi	sp,sp,8
   22db0:	f800283a 	ret

00022db4 <MipiBridgeRegRead>:

alt_u16 MipiBridgeRegRead(alt_u16 Addr){
   22db4:	defffa04 	addi	sp,sp,-24
   22db8:	dfc00515 	stw	ra,20(sp)
   22dbc:	df000415 	stw	fp,16(sp)
   22dc0:	df000404 	addi	fp,sp,16
   22dc4:	2005883a 	mov	r2,r4
   22dc8:	e0bfff0d 	sth	r2,-4(fp)
	alt_u16 Value,tValue;
	const alt_u8 device_address = MIPI_BRIDGE_I2C_ADDR;
   22dcc:	00800704 	movi	r2,28
   22dd0:	e0bffd05 	stb	r2,-12(fp)

	OC_I2CL_Read(I2C_OPENCORES_MIPI_BASE,device_address, Addr,(alt_u8 *)&Value,sizeof(Value));
   22dd4:	e0fffd03 	ldbu	r3,-12(fp)
   22dd8:	e13fff0b 	ldhu	r4,-4(fp)
   22ddc:	e17ffe04 	addi	r5,fp,-8
   22de0:	00800084 	movi	r2,2
   22de4:	d8800015 	stw	r2,0(sp)
   22de8:	280f883a 	mov	r7,r5
   22dec:	200d883a 	mov	r6,r4
   22df0:	180b883a 	mov	r5,r3
   22df4:	01000134 	movhi	r4,4
   22df8:	21041804 	addi	r4,r4,4192
   22dfc:	0020dbc0 	call	20dbc <OC_I2CL_Read>

	tValue = nSWAP16(Value);
   22e00:	e0bffe0b 	ldhu	r2,-8(fp)
   22e04:	10bfffcc 	andi	r2,r2,65535
   22e08:	1009883a 	mov	r4,r2
   22e0c:	0022cfc0 	call	22cfc <nSWAP16>
   22e10:	e0bffd8d 	sth	r2,-10(fp)

	return (tValue);
   22e14:	e0bffd8b 	ldhu	r2,-10(fp)
}
   22e18:	e037883a 	mov	sp,fp
   22e1c:	dfc00117 	ldw	ra,4(sp)
   22e20:	df000017 	ldw	fp,0(sp)
   22e24:	dec00204 	addi	sp,sp,8
   22e28:	f800283a 	ret

00022e2c <MipiBridgeInit>:




void MipiBridgeInit(void){
   22e2c:	defffb04 	addi	sp,sp,-20
   22e30:	dfc00415 	stw	ra,16(sp)
   22e34:	df000315 	stw	fp,12(sp)
   22e38:	df000304 	addi	fp,sp,12

	alt_u16 data;
    int i, num;

	printf("\nStart MipiBridgeInit!\n");
   22e3c:	010000f4 	movhi	r4,3
   22e40:	2114d804 	addi	r4,r4,21344
   22e44:	002515c0 	call	2515c <puts>

	data = MipiBridgeRegRead(0x0000); // read chip and revision id;
   22e48:	0009883a 	mov	r4,zero
   22e4c:	0022db40 	call	22db4 <MipiBridgeRegRead>
   22e50:	e0bffe0d 	sth	r2,-8(fp)

	printf("Chip and Revision ID is 0x%04xh(expected: 0x4401);\n",data);
   22e54:	e0bffe0b 	ldhu	r2,-8(fp)
   22e58:	100b883a 	mov	r5,r2
   22e5c:	010000f4 	movhi	r4,3
   22e60:	2114de04 	addi	r4,r4,21368
   22e64:	00250400 	call	25040 <printf>


    num = sizeof(MipiBridgeReg)/sizeof(MipiBridgeReg[0]);
   22e68:	00800344 	movi	r2,13
   22e6c:	e0bfff15 	stw	r2,-4(fp)

    for(i=0;i<num;i++){
   22e70:	e03ffd15 	stw	zero,-12(fp)
   22e74:	00002d06 	br	22f2c <MipiBridgeInit+0x100>
   	 if (MipiBridgeReg[i].Addr == 0xFFFF)   usleep(MipiBridgeReg[i].Data*1000);
   22e78:	008000f4 	movhi	r2,3
   22e7c:	1095d904 	addi	r2,r2,22372
   22e80:	e0fffd17 	ldw	r3,-12(fp)
   22e84:	18c7883a 	add	r3,r3,r3
   22e88:	18c7883a 	add	r3,r3,r3
   22e8c:	10c5883a 	add	r2,r2,r3
   22e90:	1080000b 	ldhu	r2,0(r2)
   22e94:	10ffffcc 	andi	r3,r2,65535
   22e98:	00bfffd4 	movui	r2,65535
   22e9c:	18800d1e 	bne	r3,r2,22ed4 <MipiBridgeInit+0xa8>
   22ea0:	008000f4 	movhi	r2,3
   22ea4:	1095d904 	addi	r2,r2,22372
   22ea8:	e0fffd17 	ldw	r3,-12(fp)
   22eac:	18c7883a 	add	r3,r3,r3
   22eb0:	18c7883a 	add	r3,r3,r3
   22eb4:	10c5883a 	add	r2,r2,r3
   22eb8:	10800084 	addi	r2,r2,2
   22ebc:	1080000b 	ldhu	r2,0(r2)
   22ec0:	10bfffcc 	andi	r2,r2,65535
   22ec4:	1080fa24 	muli	r2,r2,1000
   22ec8:	1009883a 	mov	r4,r2
   22ecc:	0031ed80 	call	31ed8 <usleep>
   22ed0:	00001306 	br	22f20 <MipiBridgeInit+0xf4>
        else MipiBridgeRegWrite(MipiBridgeReg[i].Addr,  MipiBridgeReg[i].Data);
   22ed4:	008000f4 	movhi	r2,3
   22ed8:	1095d904 	addi	r2,r2,22372
   22edc:	e0fffd17 	ldw	r3,-12(fp)
   22ee0:	18c7883a 	add	r3,r3,r3
   22ee4:	18c7883a 	add	r3,r3,r3
   22ee8:	10c5883a 	add	r2,r2,r3
   22eec:	1080000b 	ldhu	r2,0(r2)
   22ef0:	113fffcc 	andi	r4,r2,65535
   22ef4:	008000f4 	movhi	r2,3
   22ef8:	1095d904 	addi	r2,r2,22372
   22efc:	e0fffd17 	ldw	r3,-12(fp)
   22f00:	18c7883a 	add	r3,r3,r3
   22f04:	18c7883a 	add	r3,r3,r3
   22f08:	10c5883a 	add	r2,r2,r3
   22f0c:	10800084 	addi	r2,r2,2
   22f10:	1080000b 	ldhu	r2,0(r2)
   22f14:	10bfffcc 	andi	r2,r2,65535
   22f18:	100b883a 	mov	r5,r2
   22f1c:	0022d480 	call	22d48 <MipiBridgeRegWrite>
	printf("Chip and Revision ID is 0x%04xh(expected: 0x4401);\n",data);


    num = sizeof(MipiBridgeReg)/sizeof(MipiBridgeReg[0]);

    for(i=0;i<num;i++){
   22f20:	e0bffd17 	ldw	r2,-12(fp)
   22f24:	10800044 	addi	r2,r2,1
   22f28:	e0bffd15 	stw	r2,-12(fp)
   22f2c:	e0fffd17 	ldw	r3,-12(fp)
   22f30:	e0bfff17 	ldw	r2,-4(fp)
   22f34:	18bfd016 	blt	r3,r2,22e78 <__alt_data_end+0xfffe2e78>
//     MipiBridgeRegWrite(0x005A,((cap<<6) + (HsRxRs<<4) + ClkDly_data));
//     MipiBridgeRegWrite(0x005C,((cap<<6) + (HsRxRs<<4) + ClkDly_data));
//     MipiBridgeRegWrite(0x005E,((cap<<6) + (HsRxRs<<4) + ClkDly_data));
//

    printf("End MipiBridgeInit!\n\n");
   22f38:	010000f4 	movhi	r4,3
   22f3c:	2114eb04 	addi	r4,r4,21420
   22f40:	002515c0 	call	2515c <puts>

}
   22f44:	0001883a 	nop
   22f48:	e037883a 	mov	sp,fp
   22f4c:	dfc00117 	ldw	ra,4(sp)
   22f50:	df000017 	ldw	fp,0(sp)
   22f54:	dec00204 	addi	sp,sp,8
   22f58:	f800283a 	ret

00022f5c <OV8865_read_cmos_sensor_8>:
   };




alt_u8 OV8865_read_cmos_sensor_8(alt_u16 Addr){
   22f5c:	defffb04 	addi	sp,sp,-20
   22f60:	dfc00415 	stw	ra,16(sp)
   22f64:	df000315 	stw	fp,12(sp)
   22f68:	df000304 	addi	fp,sp,12
   22f6c:	2005883a 	mov	r2,r4
   22f70:	e0bfff0d 	sth	r2,-4(fp)
	const alt_u8 device_address = MIPI_I2C_ADDR;
   22f74:	00801b04 	movi	r2,108
   22f78:	e0bffe05 	stb	r2,-8(fp)
	alt_u8 Value;

	//OC_I2CL_Write(I2C_OPENCORES_CAMERA_BASE, device_address, SWAP16(Addr), (alt_u8 *)&Value, sizeof(Value));
	OC_I2CL_Read(I2C_OPENCORES_CAMERA_BASE, device_address, Addr, (alt_u8 *)&Value, sizeof(Value));
   22f7c:	e0fffe03 	ldbu	r3,-8(fp)
   22f80:	e13fff0b 	ldhu	r4,-4(fp)
   22f84:	e17ffe44 	addi	r5,fp,-7
   22f88:	00800044 	movi	r2,1
   22f8c:	d8800015 	stw	r2,0(sp)
   22f90:	280f883a 	mov	r7,r5
   22f94:	200d883a 	mov	r6,r4
   22f98:	180b883a 	mov	r5,r3
   22f9c:	01000134 	movhi	r4,4
   22fa0:	21041004 	addi	r4,r4,4160
   22fa4:	0020dbc0 	call	20dbc <OC_I2CL_Read>

	return (Value);
   22fa8:	e0bffe43 	ldbu	r2,-7(fp)
}
   22fac:	e037883a 	mov	sp,fp
   22fb0:	dfc00117 	ldw	ra,4(sp)
   22fb4:	df000017 	ldw	fp,0(sp)
   22fb8:	dec00204 	addi	sp,sp,8
   22fbc:	f800283a 	ret

00022fc0 <OV8865_write_cmos_sensor_8>:


void OV8865_write_cmos_sensor_8(alt_u16 Addr, alt_u8 Value){
   22fc0:	defffa04 	addi	sp,sp,-24
   22fc4:	dfc00515 	stw	ra,20(sp)
   22fc8:	df000415 	stw	fp,16(sp)
   22fcc:	df000404 	addi	fp,sp,16
   22fd0:	2007883a 	mov	r3,r4
   22fd4:	2805883a 	mov	r2,r5
   22fd8:	e0fffe0d 	sth	r3,-8(fp)
   22fdc:	e0bfff05 	stb	r2,-4(fp)
	const alt_u8 device_address = MIPI_I2C_ADDR;
   22fe0:	00801b04 	movi	r2,108
   22fe4:	e0bffd05 	stb	r2,-12(fp)
	//OC_I2CL_Write(I2C_OPENCORES_CAMERA_BASE, device_address, SWAP16(Addr), (alt_u8 *)&Value, sizeof(Value));
	OC_I2CL_Write(I2C_OPENCORES_CAMERA_BASE, device_address, Addr, (alt_u8 *)&Value, sizeof(Value));
   22fe8:	e0fffd03 	ldbu	r3,-12(fp)
   22fec:	e13ffe0b 	ldhu	r4,-8(fp)
   22ff0:	e17fff04 	addi	r5,fp,-4
   22ff4:	00800044 	movi	r2,1
   22ff8:	d8800015 	stw	r2,0(sp)
   22ffc:	280f883a 	mov	r7,r5
   23000:	200d883a 	mov	r6,r4
   23004:	180b883a 	mov	r5,r3
   23008:	01000134 	movhi	r4,4
   2300c:	21041004 	addi	r4,r4,4160
   23010:	0020bac0 	call	20bac <OC_I2CL_Write>
}
   23014:	0001883a 	nop
   23018:	e037883a 	mov	sp,fp
   2301c:	dfc00117 	ldw	ra,4(sp)
   23020:	df000017 	ldw	fp,0(sp)
   23024:	dec00204 	addi	sp,sp,8
   23028:	f800283a 	ret

0002302c <OV8865_write_AF>:


void OV8865_write_AF(alt_u8 msb, alt_u8 lsb){
   2302c:	defffa04 	addi	sp,sp,-24
   23030:	dfc00515 	stw	ra,20(sp)
   23034:	df000415 	stw	fp,16(sp)
   23038:	df000404 	addi	fp,sp,16
   2303c:	2007883a 	mov	r3,r4
   23040:	2805883a 	mov	r2,r5
   23044:	e0fffe05 	stb	r3,-8(fp)
   23048:	e0bfff05 	stb	r2,-4(fp)
	// VCM149C
	const alt_u8 device_address = MIPI_AF_I2C_ADDR;
   2304c:	00800604 	movi	r2,24
   23050:	e0bffd05 	stb	r2,-12(fp)
	OC_I2C_Write(I2C_OPENCORES_CAMERA_BASE, device_address, msb, (alt_u8 *)&lsb, sizeof(lsb));
   23054:	e0fffd03 	ldbu	r3,-12(fp)
   23058:	e13ffe03 	ldbu	r4,-8(fp)
   2305c:	e17fff04 	addi	r5,fp,-4
   23060:	00800044 	movi	r2,1
   23064:	d8800015 	stw	r2,0(sp)
   23068:	280f883a 	mov	r7,r5
   2306c:	200d883a 	mov	r6,r4
   23070:	180b883a 	mov	r5,r3
   23074:	01000134 	movhi	r4,4
   23078:	21041004 	addi	r4,r4,4160
   2307c:	00206440 	call	20644 <OC_I2C_Write>
}
   23080:	0001883a 	nop
   23084:	e037883a 	mov	sp,fp
   23088:	dfc00117 	ldw	ra,4(sp)
   2308c:	df000017 	ldw	fp,0(sp)
   23090:	dec00204 	addi	sp,sp,8
   23094:	f800283a 	ret

00023098 <OV8865_read_AF>:

void OV8865_read_AF(void){
   23098:	defffb04 	addi	sp,sp,-20
   2309c:	dfc00415 	stw	ra,16(sp)
   230a0:	df000315 	stw	fp,12(sp)
   230a4:	df000304 	addi	fp,sp,12
	// VCM149C
	const alt_u8 device_address = MIPI_AF_I2C_ADDR;
   230a8:	00800604 	movi	r2,24
   230ac:	e0bffd05 	stb	r2,-12(fp)
	alt_u8 szData8[2];
	bool bSuccess;

		bSuccess = OC_I2C_Read_Continue(I2C_OPENCORES_CAMERA_BASE, device_address, szData8, sizeof(szData8));
   230b0:	e0bffd03 	ldbu	r2,-12(fp)
   230b4:	e0ffff04 	addi	r3,fp,-4
   230b8:	01c00084 	movi	r7,2
   230bc:	180d883a 	mov	r6,r3
   230c0:	100b883a 	mov	r5,r2
   230c4:	01000134 	movhi	r4,4
   230c8:	21041004 	addi	r4,r4,4160
   230cc:	0020a740 	call	20a74 <OC_I2C_Read_Continue>
   230d0:	e0bffe15 	stw	r2,-8(fp)
		if (bSuccess)
   230d4:	e0bffe17 	ldw	r2,-8(fp)
   230d8:	10000926 	beq	r2,zero,23100 <OV8865_read_AF+0x68>
			printf("Read MSB=%xh, LSB=%xh\r\n", szData8[0], szData8[1]);
   230dc:	e0bfff03 	ldbu	r2,-4(fp)
   230e0:	10803fcc 	andi	r2,r2,255
   230e4:	e0ffff43 	ldbu	r3,-3(fp)
   230e8:	18c03fcc 	andi	r3,r3,255
   230ec:	180d883a 	mov	r6,r3
   230f0:	100b883a 	mov	r5,r2
   230f4:	010000f4 	movhi	r4,3
   230f8:	2114f104 	addi	r4,r4,21444
   230fc:	00250400 	call	25040 <printf>
}
   23100:	0001883a 	nop
   23104:	e037883a 	mov	sp,fp
   23108:	dfc00117 	ldw	ra,4(sp)
   2310c:	df000017 	ldw	fp,0(sp)
   23110:	dec00204 	addi	sp,sp,8
   23114:	f800283a 	ret

00023118 <OV8865_FOCUS_Move_to>:

void OV8865_FOCUS_Move_to(alt_u16 a_u2MovePosition)
{
   23118:	defffb04 	addi	sp,sp,-20
   2311c:	dfc00415 	stw	ra,16(sp)
   23120:	df000315 	stw	fp,12(sp)
   23124:	df000304 	addi	fp,sp,12
   23128:	2005883a 	mov	r2,r4
   2312c:	e0bfff0d 	sth	r2,-4(fp)
  if (a_u2MovePosition > 1023)   {a_u2MovePosition = 1023;}
   23130:	e0bfff0b 	ldhu	r2,-4(fp)
   23134:	10810030 	cmpltui	r2,r2,1024
   23138:	1000021e 	bne	r2,zero,23144 <OV8865_FOCUS_Move_to+0x2c>
   2313c:	0080ffc4 	movi	r2,1023
   23140:	e0bfff0d 	sth	r2,-4(fp)
  if (a_u2MovePosition < 0)     {a_u2MovePosition = 0;}
  int bSuccess;

  Focus_Released(); // waiting for VCM release I2C bus
   23144:	00213440 	call	21344 <Focus_Released>

	bSuccess = oc_i2c_init_ex(I2C_OPENCORES_CAMERA_BASE, 50*1000*1000,400*1000); //I2C: 400K
   23148:	018001b4 	movhi	r6,6
   2314c:	3186a004 	addi	r6,r6,6784
   23150:	0140bef4 	movhi	r5,763
   23154:	297c2004 	addi	r5,r5,-3968
   23158:	01000134 	movhi	r4,4
   2315c:	21041004 	addi	r4,r4,4160
   23160:	00203980 	call	20398 <oc_i2c_init_ex>
   23164:	e0bffd15 	stw	r2,-12(fp)
	if (!bSuccess)
   23168:	e0bffd17 	ldw	r2,-12(fp)
   2316c:	1000031e 	bne	r2,zero,2317c <OV8865_FOCUS_Move_to+0x64>
		printf("failed to init MIPI- Camera i2c\r\n");
   23170:	010000f4 	movhi	r4,3
   23174:	2114f704 	addi	r4,r4,21468
   23178:	002515c0 	call	2515c <puts>

	//printf("Manual set focus to %d\r\n",a_u2MovePosition);
  alt_u8 msb,lsb;
  msb = (a_u2MovePosition >> 4)&0x00FF;
   2317c:	e0bfff0b 	ldhu	r2,-4(fp)
   23180:	1004d13a 	srli	r2,r2,4
   23184:	e0bffe05 	stb	r2,-8(fp)
  lsb = (a_u2MovePosition << 4 )&0x00F0;
   23188:	e0bfff0b 	ldhu	r2,-4(fp)
   2318c:	1004913a 	slli	r2,r2,4
   23190:	e0bffe45 	stb	r2,-7(fp)
  lsb += 0x06;
   23194:	e0bffe43 	ldbu	r2,-7(fp)
   23198:	10800184 	addi	r2,r2,6
   2319c:	e0bffe45 	stb	r2,-7(fp)
//	printf("Write MSB=%xh, LSB=%xh\r\n", msb, lsb);
	OV8865_write_AF(msb, lsb+0x6);
   231a0:	e0fffe03 	ldbu	r3,-8(fp)
   231a4:	e0bffe43 	ldbu	r2,-7(fp)
   231a8:	10800184 	addi	r2,r2,6
   231ac:	10803fcc 	andi	r2,r2,255
   231b0:	100b883a 	mov	r5,r2
   231b4:	1809883a 	mov	r4,r3
   231b8:	002302c0 	call	2302c <OV8865_write_AF>
	usleep(1000);
   231bc:	0100fa04 	movi	r4,1000
   231c0:	0031ed80 	call	31ed8 <usleep>
//	OV8865_read_AF();

	oc_i2c_uninit(I2C_OPENCORES_CAMERA_BASE);  // Release I2C bus , due to two I2C master shared!
   231c4:	01000134 	movhi	r4,4
   231c8:	21041004 	addi	r4,r4,4160
   231cc:	00204d40 	call	204d4 <oc_i2c_uninit>

}
   231d0:	0001883a 	nop
   231d4:	e037883a 	mov	sp,fp
   231d8:	dfc00117 	ldw	ra,4(sp)
   231dc:	df000017 	ldw	fp,0(sp)
   231e0:	dec00204 	addi	sp,sp,8
   231e4:	f800283a 	ret

000231e8 <OV8865SetExposure>:

void OV8865SetExposure(alt_u32 exposure){
   231e8:	defffc04 	addi	sp,sp,-16
   231ec:	dfc00315 	stw	ra,12(sp)
   231f0:	df000215 	stw	fp,8(sp)
   231f4:	df000204 	addi	fp,sp,8
   231f8:	e13fff15 	stw	r4,-4(fp)

	Focus_Released(); // waiting for VCM release I2C bus
   231fc:	00213440 	call	21344 <Focus_Released>

	int bSuccess = oc_i2c_init_ex(I2C_OPENCORES_CAMERA_BASE, 50*1000*1000,400*1000); //I2C: 400K
   23200:	018001b4 	movhi	r6,6
   23204:	3186a004 	addi	r6,r6,6784
   23208:	0140bef4 	movhi	r5,763
   2320c:	297c2004 	addi	r5,r5,-3968
   23210:	01000134 	movhi	r4,4
   23214:	21041004 	addi	r4,r4,4160
   23218:	00203980 	call	20398 <oc_i2c_init_ex>
   2321c:	e0bffe15 	stw	r2,-8(fp)
	if (!bSuccess)
   23220:	e0bffe17 	ldw	r2,-8(fp)
   23224:	1000031e 	bne	r2,zero,23234 <OV8865SetExposure+0x4c>
		printf("failed to init MIPI- Camera i2c\r\n");
   23228:	010000f4 	movhi	r4,3
   2322c:	2114f704 	addi	r4,r4,21468
   23230:	002515c0 	call	2515c <puts>

	if (exposure > 0xFFFFF) exposure = 0xFFFFF;
   23234:	e0ffff17 	ldw	r3,-4(fp)
   23238:	00800434 	movhi	r2,16
   2323c:	18800336 	bltu	r3,r2,2324c <OV8865SetExposure+0x64>
   23240:	00800434 	movhi	r2,16
   23244:	10bfffc4 	addi	r2,r2,-1
   23248:	e0bfff15 	stw	r2,-4(fp)
	if (exposure < 0x20) exposure = 0x20;
   2324c:	e0bfff17 	ldw	r2,-4(fp)
   23250:	10800828 	cmpgeui	r2,r2,32
   23254:	1000021e 	bne	r2,zero,23260 <OV8865SetExposure+0x78>
   23258:	00800804 	movi	r2,32
   2325c:	e0bfff15 	stw	r2,-4(fp)

	OV8865_write_cmos_sensor_8(0x3500, (exposure >> 16) & 0x0F);
   23260:	e0bfff17 	ldw	r2,-4(fp)
   23264:	1004d43a 	srli	r2,r2,16
   23268:	108003cc 	andi	r2,r2,15
   2326c:	100b883a 	mov	r5,r2
   23270:	010d4004 	movi	r4,13568
   23274:	0022fc00 	call	22fc0 <OV8865_write_cmos_sensor_8>
	OV8865_write_cmos_sensor_8(0x3501, (exposure >> 8) & 0xFF);
   23278:	e0bfff17 	ldw	r2,-4(fp)
   2327c:	1004d23a 	srli	r2,r2,8
   23280:	10803fcc 	andi	r2,r2,255
   23284:	100b883a 	mov	r5,r2
   23288:	010d4044 	movi	r4,13569
   2328c:	0022fc00 	call	22fc0 <OV8865_write_cmos_sensor_8>
	OV8865_write_cmos_sensor_8(0x3502, exposure & 0xFF);
   23290:	e0bfff17 	ldw	r2,-4(fp)
   23294:	10803fcc 	andi	r2,r2,255
   23298:	100b883a 	mov	r5,r2
   2329c:	010d4084 	movi	r4,13570
   232a0:	0022fc00 	call	22fc0 <OV8865_write_cmos_sensor_8>


	oc_i2c_uninit(I2C_OPENCORES_CAMERA_BASE);
   232a4:	01000134 	movhi	r4,4
   232a8:	21041004 	addi	r4,r4,4160
   232ac:	00204d40 	call	204d4 <oc_i2c_uninit>
}
   232b0:	0001883a 	nop
   232b4:	e037883a 	mov	sp,fp
   232b8:	dfc00117 	ldw	ra,4(sp)
   232bc:	df000017 	ldw	fp,0(sp)
   232c0:	dec00204 	addi	sp,sp,8
   232c4:	f800283a 	ret

000232c8 <OV8865SetGain>:

void OV8865SetGain(alt_u16 gain){
   232c8:	defffc04 	addi	sp,sp,-16
   232cc:	dfc00315 	stw	ra,12(sp)
   232d0:	df000215 	stw	fp,8(sp)
   232d4:	df000204 	addi	fp,sp,8
   232d8:	2005883a 	mov	r2,r4
   232dc:	e0bfff0d 	sth	r2,-4(fp)

	Focus_Released(); // waiting for VCM release I2C bus
   232e0:	00213440 	call	21344 <Focus_Released>

	int bSuccess = oc_i2c_init_ex(I2C_OPENCORES_CAMERA_BASE, 50*1000*1000,400*1000); //I2C: 400K
   232e4:	018001b4 	movhi	r6,6
   232e8:	3186a004 	addi	r6,r6,6784
   232ec:	0140bef4 	movhi	r5,763
   232f0:	297c2004 	addi	r5,r5,-3968
   232f4:	01000134 	movhi	r4,4
   232f8:	21041004 	addi	r4,r4,4160
   232fc:	00203980 	call	20398 <oc_i2c_init_ex>
   23300:	e0bffe15 	stw	r2,-8(fp)
	if (!bSuccess)
   23304:	e0bffe17 	ldw	r2,-8(fp)
   23308:	1000031e 	bne	r2,zero,23318 <OV8865SetGain+0x50>
		printf("failed to init MIPI- Camera i2c\r\n");
   2330c:	010000f4 	movhi	r4,3
   23310:	2114f704 	addi	r4,r4,21468
   23314:	002515c0 	call	2515c <puts>

	if (gain > 0x7FF) gain = 0x7FF;
   23318:	e0bfff0b 	ldhu	r2,-4(fp)
   2331c:	10820030 	cmpltui	r2,r2,2048
   23320:	1000021e 	bne	r2,zero,2332c <OV8865SetGain+0x64>
   23324:	0081ffc4 	movi	r2,2047
   23328:	e0bfff0d 	sth	r2,-4(fp)
	if (gain < 0x080) gain = 0x080;
   2332c:	e0bfff0b 	ldhu	r2,-4(fp)
   23330:	10802028 	cmpgeui	r2,r2,128
   23334:	1000021e 	bne	r2,zero,23340 <OV8865SetGain+0x78>
   23338:	00802004 	movi	r2,128
   2333c:	e0bfff0d 	sth	r2,-4(fp)

	OV8865_write_cmos_sensor_8(0x3508, (gain >> 8) & 0x0F);
   23340:	e0bfff0b 	ldhu	r2,-4(fp)
   23344:	1004d23a 	srli	r2,r2,8
   23348:	10803fcc 	andi	r2,r2,255
   2334c:	108003cc 	andi	r2,r2,15
   23350:	100b883a 	mov	r5,r2
   23354:	010d4204 	movi	r4,13576
   23358:	0022fc00 	call	22fc0 <OV8865_write_cmos_sensor_8>
	OV8865_write_cmos_sensor_8(0x3509, gain & 0xFF);
   2335c:	e0bfff0b 	ldhu	r2,-4(fp)
   23360:	10803fcc 	andi	r2,r2,255
   23364:	100b883a 	mov	r5,r2
   23368:	010d4244 	movi	r4,13577
   2336c:	0022fc00 	call	22fc0 <OV8865_write_cmos_sensor_8>


	oc_i2c_uninit(I2C_OPENCORES_CAMERA_BASE);
   23370:	01000134 	movhi	r4,4
   23374:	21041004 	addi	r4,r4,4160
   23378:	00204d40 	call	204d4 <oc_i2c_uninit>
}
   2337c:	0001883a 	nop
   23380:	e037883a 	mov	sp,fp
   23384:	dfc00117 	ldw	ra,4(sp)
   23388:	df000017 	ldw	fp,0(sp)
   2338c:	dec00204 	addi	sp,sp,8
   23390:	f800283a 	ret

00023394 <OV8865ReadExposure>:

alt_u32 OV8865ReadExposure(){
   23394:	defffb04 	addi	sp,sp,-20
   23398:	dfc00415 	stw	ra,16(sp)
   2339c:	df000315 	stw	fp,12(sp)
   233a0:	dc000215 	stw	r16,8(sp)
   233a4:	df000304 	addi	fp,sp,12

	alt_u32 exposure;

	Focus_Released(); // waiting for VCM release I2C bus
   233a8:	00213440 	call	21344 <Focus_Released>

	int bSuccess = oc_i2c_init_ex(I2C_OPENCORES_CAMERA_BASE, 50*1000*1000,400*1000); //I2C: 400K
   233ac:	018001b4 	movhi	r6,6
   233b0:	3186a004 	addi	r6,r6,6784
   233b4:	0140bef4 	movhi	r5,763
   233b8:	297c2004 	addi	r5,r5,-3968
   233bc:	01000134 	movhi	r4,4
   233c0:	21041004 	addi	r4,r4,4160
   233c4:	00203980 	call	20398 <oc_i2c_init_ex>
   233c8:	e0bffd15 	stw	r2,-12(fp)
	if (!bSuccess)
   233cc:	e0bffd17 	ldw	r2,-12(fp)
   233d0:	1000031e 	bne	r2,zero,233e0 <OV8865ReadExposure+0x4c>
		printf("failed to init MIPI- Camera i2c\r\n");
   233d4:	010000f4 	movhi	r4,3
   233d8:	2114f704 	addi	r4,r4,21468
   233dc:	002515c0 	call	2515c <puts>

	exposure = OV8865_read_cmos_sensor_8(0x3500);
   233e0:	010d4004 	movi	r4,13568
   233e4:	0022f5c0 	call	22f5c <OV8865_read_cmos_sensor_8>
   233e8:	10803fcc 	andi	r2,r2,255
   233ec:	e0bffe15 	stw	r2,-8(fp)
	exposure = (exposure <<8) | OV8865_read_cmos_sensor_8(0x3501);
   233f0:	e0bffe17 	ldw	r2,-8(fp)
   233f4:	1020923a 	slli	r16,r2,8
   233f8:	010d4044 	movi	r4,13569
   233fc:	0022f5c0 	call	22f5c <OV8865_read_cmos_sensor_8>
   23400:	10803fcc 	andi	r2,r2,255
   23404:	8084b03a 	or	r2,r16,r2
   23408:	e0bffe15 	stw	r2,-8(fp)
	exposure = (exposure <<8) | OV8865_read_cmos_sensor_8(0x3502);
   2340c:	e0bffe17 	ldw	r2,-8(fp)
   23410:	1020923a 	slli	r16,r2,8
   23414:	010d4084 	movi	r4,13570
   23418:	0022f5c0 	call	22f5c <OV8865_read_cmos_sensor_8>
   2341c:	10803fcc 	andi	r2,r2,255
   23420:	8084b03a 	or	r2,r16,r2
   23424:	e0bffe15 	stw	r2,-8(fp)

	oc_i2c_uninit(I2C_OPENCORES_CAMERA_BASE);
   23428:	01000134 	movhi	r4,4
   2342c:	21041004 	addi	r4,r4,4160
   23430:	00204d40 	call	204d4 <oc_i2c_uninit>

	return exposure;
   23434:	e0bffe17 	ldw	r2,-8(fp)
}
   23438:	e6ffff04 	addi	sp,fp,-4
   2343c:	dfc00217 	ldw	ra,8(sp)
   23440:	df000117 	ldw	fp,4(sp)
   23444:	dc000017 	ldw	r16,0(sp)
   23448:	dec00304 	addi	sp,sp,12
   2344c:	f800283a 	ret

00023450 <MIPI_BIN_LEVEL>:




//ZOOM
void MIPI_BIN_LEVEL(alt_u8 level){
   23450:	defffc04 	addi	sp,sp,-16
   23454:	dfc00315 	stw	ra,12(sp)
   23458:	df000215 	stw	fp,8(sp)
   2345c:	df000204 	addi	fp,sp,8
   23460:	2005883a 	mov	r2,r4
   23464:	e0bfff05 	stb	r2,-4(fp)
	if(level <= 1) level = 1;
   23468:	e0bfff03 	ldbu	r2,-4(fp)
   2346c:	108000a8 	cmpgeui	r2,r2,2
   23470:	1000021e 	bne	r2,zero,2347c <MIPI_BIN_LEVEL+0x2c>
   23474:	00800044 	movi	r2,1
   23478:	e0bfff05 	stb	r2,-4(fp)
	if(level >= 3) level = 3;
   2347c:	e0bfff03 	ldbu	r2,-4(fp)
   23480:	108000f0 	cmpltui	r2,r2,3
   23484:	1000021e 	bne	r2,zero,23490 <MIPI_BIN_LEVEL+0x40>
   23488:	008000c4 	movi	r2,3
   2348c:	e0bfff05 	stb	r2,-4(fp)

	  Focus_Released(); // waiting for VCM release I2C bus
   23490:	00213440 	call	21344 <Focus_Released>

	  int bSuccess;
		bSuccess = oc_i2c_init_ex(I2C_OPENCORES_CAMERA_BASE, 50*1000*1000,400*1000); //I2C: 400K
   23494:	018001b4 	movhi	r6,6
   23498:	3186a004 	addi	r6,r6,6784
   2349c:	0140bef4 	movhi	r5,763
   234a0:	297c2004 	addi	r5,r5,-3968
   234a4:	01000134 	movhi	r4,4
   234a8:	21041004 	addi	r4,r4,4160
   234ac:	00203980 	call	20398 <oc_i2c_init_ex>
   234b0:	e0bffe15 	stw	r2,-8(fp)
		if (!bSuccess)
   234b4:	e0bffe17 	ldw	r2,-8(fp)
   234b8:	1000031e 	bne	r2,zero,234c8 <MIPI_BIN_LEVEL+0x78>
			printf("failed to init MIPI- Camera i2c\r\n");
   234bc:	010000f4 	movhi	r4,3
   234c0:	2114f704 	addi	r4,r4,21468
   234c4:	002515c0 	call	2515c <puts>


	OV8865_write_cmos_sensor_8(0x0100, 0x00);
   234c8:	000b883a 	mov	r5,zero
   234cc:	01004004 	movi	r4,256
   234d0:	0022fc00 	call	22fc0 <OV8865_write_cmos_sensor_8>

	if(level == 1){
   234d4:	e0bfff03 	ldbu	r2,-4(fp)
   234d8:	10800058 	cmpnei	r2,r2,1
   234dc:	1000131e 	bne	r2,zero,2352c <MIPI_BIN_LEVEL+0xdc>

		OV8865_write_cmos_sensor_8(0x3814, 0x01);
   234e0:	01400044 	movi	r5,1
   234e4:	010e0504 	movi	r4,14356
   234e8:	0022fc00 	call	22fc0 <OV8865_write_cmos_sensor_8>
		OV8865_write_cmos_sensor_8(0x3815, 0x01);
   234ec:	01400044 	movi	r5,1
   234f0:	010e0544 	movi	r4,14357
   234f4:	0022fc00 	call	22fc0 <OV8865_write_cmos_sensor_8>
		OV8865_write_cmos_sensor_8(0x382a, 0x01);
   234f8:	01400044 	movi	r5,1
   234fc:	010e0a84 	movi	r4,14378
   23500:	0022fc00 	call	22fc0 <OV8865_write_cmos_sensor_8>
		OV8865_write_cmos_sensor_8(0x382b, 0x01);
   23504:	01400044 	movi	r5,1
   23508:	010e0ac4 	movi	r4,14379
   2350c:	0022fc00 	call	22fc0 <OV8865_write_cmos_sensor_8>

		OV8865_write_cmos_sensor_8(0x3830, 8);
   23510:	01400204 	movi	r5,8
   23514:	010e0c04 	movi	r4,14384
   23518:	0022fc00 	call	22fc0 <OV8865_write_cmos_sensor_8>
		OV8865_write_cmos_sensor_8(0x3836, 2);
   2351c:	01400084 	movi	r5,2
   23520:	010e0d84 	movi	r4,14390
   23524:	0022fc00 	call	22fc0 <OV8865_write_cmos_sensor_8>
   23528:	00002b06 	br	235d8 <MIPI_BIN_LEVEL+0x188>
	}
	else if(level == 2){
   2352c:	e0bfff03 	ldbu	r2,-4(fp)
   23530:	10800098 	cmpnei	r2,r2,2
   23534:	1000131e 	bne	r2,zero,23584 <MIPI_BIN_LEVEL+0x134>

		OV8865_write_cmos_sensor_8(0x3814, 0x03);
   23538:	014000c4 	movi	r5,3
   2353c:	010e0504 	movi	r4,14356
   23540:	0022fc00 	call	22fc0 <OV8865_write_cmos_sensor_8>
		OV8865_write_cmos_sensor_8(0x3815, 0x01);
   23544:	01400044 	movi	r5,1
   23548:	010e0544 	movi	r4,14357
   2354c:	0022fc00 	call	22fc0 <OV8865_write_cmos_sensor_8>
		OV8865_write_cmos_sensor_8(0x382a, 0x03);
   23550:	014000c4 	movi	r5,3
   23554:	010e0a84 	movi	r4,14378
   23558:	0022fc00 	call	22fc0 <OV8865_write_cmos_sensor_8>
		OV8865_write_cmos_sensor_8(0x382b, 0x01);
   2355c:	01400044 	movi	r5,1
   23560:	010e0ac4 	movi	r4,14379
   23564:	0022fc00 	call	22fc0 <OV8865_write_cmos_sensor_8>

		OV8865_write_cmos_sensor_8(0x3830, 4);
   23568:	01400104 	movi	r5,4
   2356c:	010e0c04 	movi	r4,14384
   23570:	0022fc00 	call	22fc0 <OV8865_write_cmos_sensor_8>
		OV8865_write_cmos_sensor_8(0x3836, 1);
   23574:	01400044 	movi	r5,1
   23578:	010e0d84 	movi	r4,14390
   2357c:	0022fc00 	call	22fc0 <OV8865_write_cmos_sensor_8>
   23580:	00001506 	br	235d8 <MIPI_BIN_LEVEL+0x188>

	}
	else if(level == 3){
   23584:	e0bfff03 	ldbu	r2,-4(fp)
   23588:	108000d8 	cmpnei	r2,r2,3
   2358c:	1000121e 	bne	r2,zero,235d8 <MIPI_BIN_LEVEL+0x188>

		OV8865_write_cmos_sensor_8(0x3814, 0x07);
   23590:	014001c4 	movi	r5,7
   23594:	010e0504 	movi	r4,14356
   23598:	0022fc00 	call	22fc0 <OV8865_write_cmos_sensor_8>
		OV8865_write_cmos_sensor_8(0x3815, 0x01);
   2359c:	01400044 	movi	r5,1
   235a0:	010e0544 	movi	r4,14357
   235a4:	0022fc00 	call	22fc0 <OV8865_write_cmos_sensor_8>
		OV8865_write_cmos_sensor_8(0x382a, 0x07);
   235a8:	014001c4 	movi	r5,7
   235ac:	010e0a84 	movi	r4,14378
   235b0:	0022fc00 	call	22fc0 <OV8865_write_cmos_sensor_8>
		OV8865_write_cmos_sensor_8(0x382b, 0x01);
   235b4:	01400044 	movi	r5,1
   235b8:	010e0ac4 	movi	r4,14379
   235bc:	0022fc00 	call	22fc0 <OV8865_write_cmos_sensor_8>

		OV8865_write_cmos_sensor_8(0x3830, 8);
   235c0:	01400204 	movi	r5,8
   235c4:	010e0c04 	movi	r4,14384
   235c8:	0022fc00 	call	22fc0 <OV8865_write_cmos_sensor_8>
		OV8865_write_cmos_sensor_8(0x3836, 2);
   235cc:	01400084 	movi	r5,2
   235d0:	010e0d84 	movi	r4,14390
   235d4:	0022fc00 	call	22fc0 <OV8865_write_cmos_sensor_8>
	}
    usleep(10000);
   235d8:	0109c404 	movi	r4,10000
   235dc:	0031ed80 	call	31ed8 <usleep>
	OV8865_write_cmos_sensor_8(0x0100, 0x01);
   235e0:	01400044 	movi	r5,1
   235e4:	01004004 	movi	r4,256
   235e8:	0022fc00 	call	22fc0 <OV8865_write_cmos_sensor_8>

	oc_i2c_uninit(I2C_OPENCORES_CAMERA_BASE);  // Release I2C bus , due to two I2C master shared!
   235ec:	01000134 	movhi	r4,4
   235f0:	21041004 	addi	r4,r4,4160
   235f4:	00204d40 	call	204d4 <oc_i2c_uninit>

}
   235f8:	0001883a 	nop
   235fc:	e037883a 	mov	sp,fp
   23600:	dfc00117 	ldw	ra,4(sp)
   23604:	df000017 	ldw	fp,0(sp)
   23608:	dec00204 	addi	sp,sp,8
   2360c:	f800283a 	ret

00023610 <MipiCameraInit>:
//		OV8865_write_cmos_sensor_8(0x0100, 0x01);
//}


void MipiCameraInit(void)
{
   23610:	defffb04 	addi	sp,sp,-20
   23614:	dfc00415 	stw	ra,16(sp)
   23618:	df000315 	stw	fp,12(sp)
   2361c:	df000304 	addi	fp,sp,12

    int i, num;
    int bSuccess;

    Focus_Released(); // waiting for VCM release I2C bus
   23620:	00213440 	call	21344 <Focus_Released>


		bSuccess = oc_i2c_init_ex(I2C_OPENCORES_CAMERA_BASE, 50*1000*1000,400*1000); //I2C: 400K
   23624:	018001b4 	movhi	r6,6
   23628:	3186a004 	addi	r6,r6,6784
   2362c:	0140bef4 	movhi	r5,763
   23630:	297c2004 	addi	r5,r5,-3968
   23634:	01000134 	movhi	r4,4
   23638:	21041004 	addi	r4,r4,4160
   2363c:	00203980 	call	20398 <oc_i2c_init_ex>
   23640:	e0bffe15 	stw	r2,-8(fp)
		if (!bSuccess)
   23644:	e0bffe17 	ldw	r2,-8(fp)
   23648:	1000031e 	bne	r2,zero,23658 <MipiCameraInit+0x48>
			printf("failed to init MIPI- Camera i2c\r\n");
   2364c:	010000f4 	movhi	r4,3
   23650:	2114f704 	addi	r4,r4,21468
   23654:	002515c0 	call	2515c <puts>
//        usleep(10000);
//    }
//


	 OV8865DB("\nStart MipiCameraInit -OV8865!\r\n");
   23658:	010000f4 	movhi	r4,3
   2365c:	21150004 	addi	r4,r4,21504
   23660:	002515c0 	call	2515c <puts>
	 OV8865DB("Write Read Test!\n");
   23664:	010000f4 	movhi	r4,3
   23668:	21150804 	addi	r4,r4,21536
   2366c:	002515c0 	call	2515c <puts>

	    for(i=0;i<10;i++){
   23670:	e03ffd15 	stw	zero,-12(fp)
   23674:	00001406 	br	236c8 <MipiCameraInit+0xb8>
	       OV8865_write_cmos_sensor_8(0x3809,i);
   23678:	e0bffd17 	ldw	r2,-12(fp)
   2367c:	10803fcc 	andi	r2,r2,255
   23680:	100b883a 	mov	r5,r2
   23684:	010e0244 	movi	r4,14345
   23688:	0022fc00 	call	22fc0 <OV8865_write_cmos_sensor_8>
	      usleep(100);
   2368c:	01001904 	movi	r4,100
   23690:	0031ed80 	call	31ed8 <usleep>
	        printf("%d (%d)\n",OV8865_read_cmos_sensor_8(0x3809),i);
   23694:	010e0244 	movi	r4,14345
   23698:	0022f5c0 	call	22f5c <OV8865_read_cmos_sensor_8>
   2369c:	10803fcc 	andi	r2,r2,255
   236a0:	e1bffd17 	ldw	r6,-12(fp)
   236a4:	100b883a 	mov	r5,r2
   236a8:	010000f4 	movhi	r4,3
   236ac:	21150d04 	addi	r4,r4,21556
   236b0:	00250400 	call	25040 <printf>
	      usleep(100);
   236b4:	01001904 	movi	r4,100
   236b8:	0031ed80 	call	31ed8 <usleep>


	 OV8865DB("\nStart MipiCameraInit -OV8865!\r\n");
	 OV8865DB("Write Read Test!\n");

	    for(i=0;i<10;i++){
   236bc:	e0bffd17 	ldw	r2,-12(fp)
   236c0:	10800044 	addi	r2,r2,1
   236c4:	e0bffd15 	stw	r2,-12(fp)
   236c8:	e0bffd17 	ldw	r2,-12(fp)
   236cc:	10800290 	cmplti	r2,r2,10
   236d0:	103fe91e 	bne	r2,zero,23678 <__alt_data_end+0xfffe3678>
	       OV8865_write_cmos_sensor_8(0x3809,i);
	      usleep(100);
	        printf("%d (%d)\n",OV8865_read_cmos_sensor_8(0x3809),i);
	      usleep(100);
	    }
	 num = sizeof(MipiCameraReg)/sizeof(MipiCameraReg[0]);
   236d4:	00804f84 	movi	r2,318
   236d8:	e0bfff15 	stw	r2,-4(fp)
     for(i=0;i<num;i++){
   236dc:	e03ffd15 	stw	zero,-12(fp)
   236e0:	00003c06 	br	237d4 <MipiCameraInit+0x1c4>

    	 if (MipiCameraReg[i].Type == TIME_DELAY)   usleep(MipiCameraReg[i].Data*100);
   236e4:	008000f4 	movhi	r2,3
   236e8:	1095e604 	addi	r2,r2,22424
   236ec:	e0fffd17 	ldw	r3,-12(fp)
   236f0:	18c001a4 	muli	r3,r3,6
   236f4:	10c5883a 	add	r2,r2,r3
   236f8:	10800003 	ldbu	r2,0(r2)
   236fc:	10803fcc 	andi	r2,r2,255
   23700:	108000d8 	cmpnei	r2,r2,3
   23704:	10000c1e 	bne	r2,zero,23738 <MipiCameraInit+0x128>
   23708:	008000f4 	movhi	r2,3
   2370c:	1095e604 	addi	r2,r2,22424
   23710:	e0fffd17 	ldw	r3,-12(fp)
   23714:	18c001a4 	muli	r3,r3,6
   23718:	10c5883a 	add	r2,r2,r3
   2371c:	10800104 	addi	r2,r2,4
   23720:	10800003 	ldbu	r2,0(r2)
   23724:	10803fcc 	andi	r2,r2,255
   23728:	10801924 	muli	r2,r2,100
   2372c:	1009883a 	mov	r4,r2
   23730:	0031ed80 	call	31ed8 <usleep>
   23734:	00002406 	br	237c8 <MipiCameraInit+0x1b8>
    	 else if(MipiCameraReg[i].Type == END_OF_SCRIPT)   break;
   23738:	008000f4 	movhi	r2,3
   2373c:	1095e604 	addi	r2,r2,22424
   23740:	e0fffd17 	ldw	r3,-12(fp)
   23744:	18c001a4 	muli	r3,r3,6
   23748:	10c5883a 	add	r2,r2,r3
   2374c:	10800003 	ldbu	r2,0(r2)
   23750:	10803fcc 	andi	r2,r2,255
   23754:	10800118 	cmpnei	r2,r2,4
   23758:	10002226 	beq	r2,zero,237e4 <MipiCameraInit+0x1d4>
    	 else if(MipiCameraReg[i].Type == 0x6c)   OV8865_write_cmos_sensor_8(MipiCameraReg[i].Addr, MipiCameraReg[i].Data);
   2375c:	008000f4 	movhi	r2,3
   23760:	1095e604 	addi	r2,r2,22424
   23764:	e0fffd17 	ldw	r3,-12(fp)
   23768:	18c001a4 	muli	r3,r3,6
   2376c:	10c5883a 	add	r2,r2,r3
   23770:	10800003 	ldbu	r2,0(r2)
   23774:	10803fcc 	andi	r2,r2,255
   23778:	10801b18 	cmpnei	r2,r2,108
   2377c:	1000121e 	bne	r2,zero,237c8 <MipiCameraInit+0x1b8>
   23780:	008000f4 	movhi	r2,3
   23784:	1095e604 	addi	r2,r2,22424
   23788:	e0fffd17 	ldw	r3,-12(fp)
   2378c:	18c001a4 	muli	r3,r3,6
   23790:	10c5883a 	add	r2,r2,r3
   23794:	10800084 	addi	r2,r2,2
   23798:	1080000b 	ldhu	r2,0(r2)
   2379c:	113fffcc 	andi	r4,r2,65535
   237a0:	008000f4 	movhi	r2,3
   237a4:	1095e604 	addi	r2,r2,22424
   237a8:	e0fffd17 	ldw	r3,-12(fp)
   237ac:	18c001a4 	muli	r3,r3,6
   237b0:	10c5883a 	add	r2,r2,r3
   237b4:	10800104 	addi	r2,r2,4
   237b8:	10800003 	ldbu	r2,0(r2)
   237bc:	10803fcc 	andi	r2,r2,255
   237c0:	100b883a 	mov	r5,r2
   237c4:	0022fc00 	call	22fc0 <OV8865_write_cmos_sensor_8>
	      usleep(100);
	        printf("%d (%d)\n",OV8865_read_cmos_sensor_8(0x3809),i);
	      usleep(100);
	    }
	 num = sizeof(MipiCameraReg)/sizeof(MipiCameraReg[0]);
     for(i=0;i<num;i++){
   237c8:	e0bffd17 	ldw	r2,-12(fp)
   237cc:	10800044 	addi	r2,r2,1
   237d0:	e0bffd15 	stw	r2,-12(fp)
   237d4:	e0fffd17 	ldw	r3,-12(fp)
   237d8:	e0bfff17 	ldw	r2,-4(fp)
   237dc:	18bfc116 	blt	r3,r2,236e4 <__alt_data_end+0xfffe36e4>
   237e0:	00000106 	br	237e8 <MipiCameraInit+0x1d8>

    	 if (MipiCameraReg[i].Type == TIME_DELAY)   usleep(MipiCameraReg[i].Data*100);
    	 else if(MipiCameraReg[i].Type == END_OF_SCRIPT)   break;
   237e4:	0001883a 	nop
    	 else if(MipiCameraReg[i].Type == 0x6c)   OV8865_write_cmos_sensor_8(MipiCameraReg[i].Addr, MipiCameraReg[i].Data);
     }


 	oc_i2c_uninit(I2C_OPENCORES_CAMERA_BASE);  // Release I2C bus , due to two I2C master shared!
   237e8:	01000134 	movhi	r4,4
   237ec:	21041004 	addi	r4,r4,4160
   237f0:	00204d40 	call	204d4 <oc_i2c_uninit>



	 OV8865DB("\nEnd MipiCameraInit! -OV8865!\r\n\n");
   237f4:	010000f4 	movhi	r4,3
   237f8:	21151004 	addi	r4,r4,21568
   237fc:	002515c0 	call	2515c <puts>

}
   23800:	0001883a 	nop
   23804:	e037883a 	mov	sp,fp
   23808:	dfc00117 	ldw	ra,4(sp)
   2380c:	df000017 	ldw	fp,0(sp)
   23810:	dec00204 	addi	sp,sp,8
   23814:	f800283a 	ret

00023818 <QUEUE_New>:
#include "queue.h"




QUEUE_STRUCT* QUEUE_New(int nQueueNum){
   23818:	defffb04 	addi	sp,sp,-20
   2381c:	dfc00415 	stw	ra,16(sp)
   23820:	df000315 	stw	fp,12(sp)
   23824:	df000304 	addi	fp,sp,12
   23828:	e13fff15 	stw	r4,-4(fp)
    int nSize;
    QUEUE_STRUCT *pQueue;
    nSize = sizeof(QUEUE_STRUCT)+nQueueNum*sizeof(alt_u32);
   2382c:	e0bfff17 	ldw	r2,-4(fp)
   23830:	10800144 	addi	r2,r2,5
   23834:	1085883a 	add	r2,r2,r2
   23838:	1085883a 	add	r2,r2,r2
   2383c:	e0bffd15 	stw	r2,-12(fp)
    pQueue = (QUEUE_STRUCT *)malloc(nSize);
   23840:	e0bffd17 	ldw	r2,-12(fp)
   23844:	1009883a 	mov	r4,r2
   23848:	00246540 	call	24654 <malloc>
   2384c:	e0bffe15 	stw	r2,-8(fp)
    memset((void *)pQueue, 0, nSize);
   23850:	e0bffd17 	ldw	r2,-12(fp)
   23854:	100d883a 	mov	r6,r2
   23858:	000b883a 	mov	r5,zero
   2385c:	e13ffe17 	ldw	r4,-8(fp)
   23860:	0024e880 	call	24e88 <memset>
    pQueue->num = nQueueNum;
   23864:	e0ffff17 	ldw	r3,-4(fp)
   23868:	e0bffe17 	ldw	r2,-8(fp)
   2386c:	10c00015 	stw	r3,0(r2)
    return pQueue;
   23870:	e0bffe17 	ldw	r2,-8(fp)
}
   23874:	e037883a 	mov	sp,fp
   23878:	dfc00117 	ldw	ra,4(sp)
   2387c:	df000017 	ldw	fp,0(sp)
   23880:	dec00204 	addi	sp,sp,8
   23884:	f800283a 	ret

00023888 <QUEUE_Delete>:

void QUEUE_Delete(QUEUE_STRUCT *pQueue){
   23888:	defffd04 	addi	sp,sp,-12
   2388c:	dfc00215 	stw	ra,8(sp)
   23890:	df000115 	stw	fp,4(sp)
   23894:	df000104 	addi	fp,sp,4
   23898:	e13fff15 	stw	r4,-4(fp)
    free(pQueue);
   2389c:	e13fff17 	ldw	r4,-4(fp)
   238a0:	00246680 	call	24668 <free>
}
   238a4:	0001883a 	nop
   238a8:	e037883a 	mov	sp,fp
   238ac:	dfc00117 	ldw	ra,4(sp)
   238b0:	df000017 	ldw	fp,0(sp)
   238b4:	dec00204 	addi	sp,sp,8
   238b8:	f800283a 	ret

000238bc <QUEUE_IsEmpty>:

bool QUEUE_IsEmpty(QUEUE_STRUCT *pQueue){
   238bc:	defffe04 	addi	sp,sp,-8
   238c0:	df000115 	stw	fp,4(sp)
   238c4:	df000104 	addi	fp,sp,4
   238c8:	e13fff15 	stw	r4,-4(fp)
    if (pQueue->front == pQueue->rear)
   238cc:	e0bfff17 	ldw	r2,-4(fp)
   238d0:	10c00117 	ldw	r3,4(r2)
   238d4:	e0bfff17 	ldw	r2,-4(fp)
   238d8:	10800217 	ldw	r2,8(r2)
   238dc:	1880021e 	bne	r3,r2,238e8 <QUEUE_IsEmpty+0x2c>
        return TRUE;
   238e0:	00800044 	movi	r2,1
   238e4:	00000106 	br	238ec <QUEUE_IsEmpty+0x30>
    return FALSE;
   238e8:	0005883a 	mov	r2,zero
}
   238ec:	e037883a 	mov	sp,fp
   238f0:	df000017 	ldw	fp,0(sp)
   238f4:	dec00104 	addi	sp,sp,4
   238f8:	f800283a 	ret

000238fc <QUEUE_IsFull>:

bool QUEUE_IsFull(QUEUE_STRUCT *pQueue){
   238fc:	defffd04 	addi	sp,sp,-12
   23900:	dfc00215 	stw	ra,8(sp)
   23904:	df000115 	stw	fp,4(sp)
   23908:	df000104 	addi	fp,sp,4
   2390c:	e13fff15 	stw	r4,-4(fp)
    if (((pQueue->front+1)%pQueue->num) == pQueue->rear)
   23910:	e0bfff17 	ldw	r2,-4(fp)
   23914:	10800117 	ldw	r2,4(r2)
   23918:	10c00044 	addi	r3,r2,1
   2391c:	e0bfff17 	ldw	r2,-4(fp)
   23920:	10800017 	ldw	r2,0(r2)
   23924:	100b883a 	mov	r5,r2
   23928:	1809883a 	mov	r4,r3
   2392c:	0023c140 	call	23c14 <__umodsi3>
   23930:	1007883a 	mov	r3,r2
   23934:	e0bfff17 	ldw	r2,-4(fp)
   23938:	10800217 	ldw	r2,8(r2)
   2393c:	1880021e 	bne	r3,r2,23948 <QUEUE_IsFull+0x4c>
        return TRUE;
   23940:	00800044 	movi	r2,1
   23944:	00000106 	br	2394c <QUEUE_IsFull+0x50>
    return FALSE;
   23948:	0005883a 	mov	r2,zero
}
   2394c:	e037883a 	mov	sp,fp
   23950:	dfc00117 	ldw	ra,4(sp)
   23954:	df000017 	ldw	fp,0(sp)
   23958:	dec00204 	addi	sp,sp,8
   2395c:	f800283a 	ret

00023960 <QUEUE_Push>:

bool QUEUE_Push(QUEUE_STRUCT *pQueue, alt_u32 data32){
   23960:	defffc04 	addi	sp,sp,-16
   23964:	dfc00315 	stw	ra,12(sp)
   23968:	df000215 	stw	fp,8(sp)
   2396c:	df000204 	addi	fp,sp,8
   23970:	e13ffe15 	stw	r4,-8(fp)
   23974:	e17fff15 	stw	r5,-4(fp)
    if (QUEUE_IsFull(pQueue))
   23978:	e13ffe17 	ldw	r4,-8(fp)
   2397c:	00238fc0 	call	238fc <QUEUE_IsFull>
   23980:	10000226 	beq	r2,zero,2398c <QUEUE_Push+0x2c>
        return FALSE;
   23984:	0005883a 	mov	r2,zero
   23988:	00001506 	br	239e0 <QUEUE_Push+0x80>
    pQueue->data[pQueue->front] = data32;
   2398c:	e0bffe17 	ldw	r2,-8(fp)
   23990:	10800117 	ldw	r2,4(r2)
   23994:	e0fffe17 	ldw	r3,-8(fp)
   23998:	108000c4 	addi	r2,r2,3
   2399c:	1085883a 	add	r2,r2,r2
   239a0:	1085883a 	add	r2,r2,r2
   239a4:	1885883a 	add	r2,r3,r2
   239a8:	e0ffff17 	ldw	r3,-4(fp)
   239ac:	10c00015 	stw	r3,0(r2)
    pQueue->front = (pQueue->front+1)%pQueue->num;        
   239b0:	e0bffe17 	ldw	r2,-8(fp)
   239b4:	10800117 	ldw	r2,4(r2)
   239b8:	10c00044 	addi	r3,r2,1
   239bc:	e0bffe17 	ldw	r2,-8(fp)
   239c0:	10800017 	ldw	r2,0(r2)
   239c4:	100b883a 	mov	r5,r2
   239c8:	1809883a 	mov	r4,r3
   239cc:	0023c140 	call	23c14 <__umodsi3>
   239d0:	1007883a 	mov	r3,r2
   239d4:	e0bffe17 	ldw	r2,-8(fp)
   239d8:	10c00115 	stw	r3,4(r2)
    return TRUE;
   239dc:	00800044 	movi	r2,1
}
   239e0:	e037883a 	mov	sp,fp
   239e4:	dfc00117 	ldw	ra,4(sp)
   239e8:	df000017 	ldw	fp,0(sp)
   239ec:	dec00204 	addi	sp,sp,8
   239f0:	f800283a 	ret

000239f4 <QUEUE_Pop>:

alt_u32 QUEUE_Pop(QUEUE_STRUCT *pQueue){
   239f4:	defffc04 	addi	sp,sp,-16
   239f8:	dfc00315 	stw	ra,12(sp)
   239fc:	df000215 	stw	fp,8(sp)
   23a00:	df000204 	addi	fp,sp,8
   23a04:	e13fff15 	stw	r4,-4(fp)
    alt_u32 data32;
    if (QUEUE_IsEmpty(pQueue))
   23a08:	e13fff17 	ldw	r4,-4(fp)
   23a0c:	00238bc0 	call	238bc <QUEUE_IsEmpty>
   23a10:	10000226 	beq	r2,zero,23a1c <QUEUE_Pop+0x28>
        return 0;
   23a14:	0005883a 	mov	r2,zero
   23a18:	00001506 	br	23a70 <QUEUE_Pop+0x7c>
    data32 = pQueue->data[pQueue->rear];
   23a1c:	e0bfff17 	ldw	r2,-4(fp)
   23a20:	10800217 	ldw	r2,8(r2)
   23a24:	e0ffff17 	ldw	r3,-4(fp)
   23a28:	108000c4 	addi	r2,r2,3
   23a2c:	1085883a 	add	r2,r2,r2
   23a30:	1085883a 	add	r2,r2,r2
   23a34:	1885883a 	add	r2,r3,r2
   23a38:	10800017 	ldw	r2,0(r2)
   23a3c:	e0bffe15 	stw	r2,-8(fp)
    pQueue->rear = (pQueue->rear+1)%pQueue->num;        
   23a40:	e0bfff17 	ldw	r2,-4(fp)
   23a44:	10800217 	ldw	r2,8(r2)
   23a48:	10c00044 	addi	r3,r2,1
   23a4c:	e0bfff17 	ldw	r2,-4(fp)
   23a50:	10800017 	ldw	r2,0(r2)
   23a54:	100b883a 	mov	r5,r2
   23a58:	1809883a 	mov	r4,r3
   23a5c:	0023c140 	call	23c14 <__umodsi3>
   23a60:	1007883a 	mov	r3,r2
   23a64:	e0bfff17 	ldw	r2,-4(fp)
   23a68:	10c00215 	stw	r3,8(r2)
    return data32;
   23a6c:	e0bffe17 	ldw	r2,-8(fp)
}
   23a70:	e037883a 	mov	sp,fp
   23a74:	dfc00117 	ldw	ra,4(sp)
   23a78:	df000017 	ldw	fp,0(sp)
   23a7c:	dec00204 	addi	sp,sp,8
   23a80:	f800283a 	ret

00023a84 <QUEUE_Empty>:

void QUEUE_Empty(QUEUE_STRUCT *pQueue){
   23a84:	defffe04 	addi	sp,sp,-8
   23a88:	df000115 	stw	fp,4(sp)
   23a8c:	df000104 	addi	fp,sp,4
   23a90:	e13fff15 	stw	r4,-4(fp)
    pQueue->front = 0;
   23a94:	e0bfff17 	ldw	r2,-4(fp)
   23a98:	10000115 	stw	zero,4(r2)
    pQueue->rear = 0;
   23a9c:	e0bfff17 	ldw	r2,-4(fp)
   23aa0:	10000215 	stw	zero,8(r2)
}
   23aa4:	0001883a 	nop
   23aa8:	e037883a 	mov	sp,fp
   23aac:	df000017 	ldw	fp,0(sp)
   23ab0:	dec00104 	addi	sp,sp,4
   23ab4:	f800283a 	ret

00023ab8 <__divsi3>:
   23ab8:	20001b16 	blt	r4,zero,23b28 <__divsi3+0x70>
   23abc:	000f883a 	mov	r7,zero
   23ac0:	28001616 	blt	r5,zero,23b1c <__divsi3+0x64>
   23ac4:	200d883a 	mov	r6,r4
   23ac8:	29001a2e 	bgeu	r5,r4,23b34 <__divsi3+0x7c>
   23acc:	00800804 	movi	r2,32
   23ad0:	00c00044 	movi	r3,1
   23ad4:	00000106 	br	23adc <__divsi3+0x24>
   23ad8:	10000d26 	beq	r2,zero,23b10 <__divsi3+0x58>
   23adc:	294b883a 	add	r5,r5,r5
   23ae0:	10bfffc4 	addi	r2,r2,-1
   23ae4:	18c7883a 	add	r3,r3,r3
   23ae8:	293ffb36 	bltu	r5,r4,23ad8 <__alt_data_end+0xfffe3ad8>
   23aec:	0005883a 	mov	r2,zero
   23af0:	18000726 	beq	r3,zero,23b10 <__divsi3+0x58>
   23af4:	0005883a 	mov	r2,zero
   23af8:	31400236 	bltu	r6,r5,23b04 <__divsi3+0x4c>
   23afc:	314dc83a 	sub	r6,r6,r5
   23b00:	10c4b03a 	or	r2,r2,r3
   23b04:	1806d07a 	srli	r3,r3,1
   23b08:	280ad07a 	srli	r5,r5,1
   23b0c:	183ffa1e 	bne	r3,zero,23af8 <__alt_data_end+0xfffe3af8>
   23b10:	38000126 	beq	r7,zero,23b18 <__divsi3+0x60>
   23b14:	0085c83a 	sub	r2,zero,r2
   23b18:	f800283a 	ret
   23b1c:	014bc83a 	sub	r5,zero,r5
   23b20:	39c0005c 	xori	r7,r7,1
   23b24:	003fe706 	br	23ac4 <__alt_data_end+0xfffe3ac4>
   23b28:	0109c83a 	sub	r4,zero,r4
   23b2c:	01c00044 	movi	r7,1
   23b30:	003fe306 	br	23ac0 <__alt_data_end+0xfffe3ac0>
   23b34:	00c00044 	movi	r3,1
   23b38:	003fee06 	br	23af4 <__alt_data_end+0xfffe3af4>

00023b3c <__modsi3>:
   23b3c:	20001716 	blt	r4,zero,23b9c <__modsi3+0x60>
   23b40:	000f883a 	mov	r7,zero
   23b44:	2005883a 	mov	r2,r4
   23b48:	28001216 	blt	r5,zero,23b94 <__modsi3+0x58>
   23b4c:	2900162e 	bgeu	r5,r4,23ba8 <__modsi3+0x6c>
   23b50:	01800804 	movi	r6,32
   23b54:	00c00044 	movi	r3,1
   23b58:	00000106 	br	23b60 <__modsi3+0x24>
   23b5c:	30000a26 	beq	r6,zero,23b88 <__modsi3+0x4c>
   23b60:	294b883a 	add	r5,r5,r5
   23b64:	31bfffc4 	addi	r6,r6,-1
   23b68:	18c7883a 	add	r3,r3,r3
   23b6c:	293ffb36 	bltu	r5,r4,23b5c <__alt_data_end+0xfffe3b5c>
   23b70:	18000526 	beq	r3,zero,23b88 <__modsi3+0x4c>
   23b74:	1806d07a 	srli	r3,r3,1
   23b78:	11400136 	bltu	r2,r5,23b80 <__modsi3+0x44>
   23b7c:	1145c83a 	sub	r2,r2,r5
   23b80:	280ad07a 	srli	r5,r5,1
   23b84:	183ffb1e 	bne	r3,zero,23b74 <__alt_data_end+0xfffe3b74>
   23b88:	38000126 	beq	r7,zero,23b90 <__modsi3+0x54>
   23b8c:	0085c83a 	sub	r2,zero,r2
   23b90:	f800283a 	ret
   23b94:	014bc83a 	sub	r5,zero,r5
   23b98:	003fec06 	br	23b4c <__alt_data_end+0xfffe3b4c>
   23b9c:	0109c83a 	sub	r4,zero,r4
   23ba0:	01c00044 	movi	r7,1
   23ba4:	003fe706 	br	23b44 <__alt_data_end+0xfffe3b44>
   23ba8:	00c00044 	movi	r3,1
   23bac:	003ff106 	br	23b74 <__alt_data_end+0xfffe3b74>

00023bb0 <__udivsi3>:
   23bb0:	200d883a 	mov	r6,r4
   23bb4:	2900152e 	bgeu	r5,r4,23c0c <__udivsi3+0x5c>
   23bb8:	28001416 	blt	r5,zero,23c0c <__udivsi3+0x5c>
   23bbc:	00800804 	movi	r2,32
   23bc0:	00c00044 	movi	r3,1
   23bc4:	00000206 	br	23bd0 <__udivsi3+0x20>
   23bc8:	10000e26 	beq	r2,zero,23c04 <__udivsi3+0x54>
   23bcc:	28000516 	blt	r5,zero,23be4 <__udivsi3+0x34>
   23bd0:	294b883a 	add	r5,r5,r5
   23bd4:	10bfffc4 	addi	r2,r2,-1
   23bd8:	18c7883a 	add	r3,r3,r3
   23bdc:	293ffa36 	bltu	r5,r4,23bc8 <__alt_data_end+0xfffe3bc8>
   23be0:	18000826 	beq	r3,zero,23c04 <__udivsi3+0x54>
   23be4:	0005883a 	mov	r2,zero
   23be8:	31400236 	bltu	r6,r5,23bf4 <__udivsi3+0x44>
   23bec:	314dc83a 	sub	r6,r6,r5
   23bf0:	10c4b03a 	or	r2,r2,r3
   23bf4:	1806d07a 	srli	r3,r3,1
   23bf8:	280ad07a 	srli	r5,r5,1
   23bfc:	183ffa1e 	bne	r3,zero,23be8 <__alt_data_end+0xfffe3be8>
   23c00:	f800283a 	ret
   23c04:	0005883a 	mov	r2,zero
   23c08:	f800283a 	ret
   23c0c:	00c00044 	movi	r3,1
   23c10:	003ff406 	br	23be4 <__alt_data_end+0xfffe3be4>

00023c14 <__umodsi3>:
   23c14:	2005883a 	mov	r2,r4
   23c18:	2900122e 	bgeu	r5,r4,23c64 <__umodsi3+0x50>
   23c1c:	28001116 	blt	r5,zero,23c64 <__umodsi3+0x50>
   23c20:	01800804 	movi	r6,32
   23c24:	00c00044 	movi	r3,1
   23c28:	00000206 	br	23c34 <__umodsi3+0x20>
   23c2c:	30000c26 	beq	r6,zero,23c60 <__umodsi3+0x4c>
   23c30:	28000516 	blt	r5,zero,23c48 <__umodsi3+0x34>
   23c34:	294b883a 	add	r5,r5,r5
   23c38:	31bfffc4 	addi	r6,r6,-1
   23c3c:	18c7883a 	add	r3,r3,r3
   23c40:	293ffa36 	bltu	r5,r4,23c2c <__alt_data_end+0xfffe3c2c>
   23c44:	18000626 	beq	r3,zero,23c60 <__umodsi3+0x4c>
   23c48:	1806d07a 	srli	r3,r3,1
   23c4c:	11400136 	bltu	r2,r5,23c54 <__umodsi3+0x40>
   23c50:	1145c83a 	sub	r2,r2,r5
   23c54:	280ad07a 	srli	r5,r5,1
   23c58:	183ffb1e 	bne	r3,zero,23c48 <__alt_data_end+0xfffe3c48>
   23c5c:	f800283a 	ret
   23c60:	f800283a 	ret
   23c64:	00c00044 	movi	r3,1
   23c68:	003ff706 	br	23c48 <__alt_data_end+0xfffe3c48>

00023c6c <_fopen_r>:
   23c6c:	defffa04 	addi	sp,sp,-24
   23c70:	3005883a 	mov	r2,r6
   23c74:	dcc00415 	stw	r19,16(sp)
   23c78:	d80d883a 	mov	r6,sp
   23c7c:	2827883a 	mov	r19,r5
   23c80:	100b883a 	mov	r5,r2
   23c84:	dc800315 	stw	r18,12(sp)
   23c88:	dfc00515 	stw	ra,20(sp)
   23c8c:	dc400215 	stw	r17,8(sp)
   23c90:	dc000115 	stw	r16,4(sp)
   23c94:	2025883a 	mov	r18,r4
   23c98:	00299b80 	call	299b8 <__sflags>
   23c9c:	10002726 	beq	r2,zero,23d3c <_fopen_r+0xd0>
   23ca0:	9009883a 	mov	r4,r18
   23ca4:	1023883a 	mov	r17,r2
   23ca8:	00298380 	call	29838 <__sfp>
   23cac:	1021883a 	mov	r16,r2
   23cb0:	10002226 	beq	r2,zero,23d3c <_fopen_r+0xd0>
   23cb4:	d9800017 	ldw	r6,0(sp)
   23cb8:	01c06d84 	movi	r7,438
   23cbc:	980b883a 	mov	r5,r19
   23cc0:	9009883a 	mov	r4,r18
   23cc4:	0024fb00 	call	24fb0 <_open_r>
   23cc8:	10001916 	blt	r2,zero,23d30 <_fopen_r+0xc4>
   23ccc:	8080038d 	sth	r2,14(r16)
   23cd0:	008000b4 	movhi	r2,2
   23cd4:	10950f04 	addi	r2,r2,21564
   23cd8:	80800815 	stw	r2,32(r16)
   23cdc:	008000b4 	movhi	r2,2
   23ce0:	10952604 	addi	r2,r2,21656
   23ce4:	80800915 	stw	r2,36(r16)
   23ce8:	008000b4 	movhi	r2,2
   23cec:	10954504 	addi	r2,r2,21780
   23cf0:	80800a15 	stw	r2,40(r16)
   23cf4:	008000b4 	movhi	r2,2
   23cf8:	10955c04 	addi	r2,r2,21872
   23cfc:	8440030d 	sth	r17,12(r16)
   23d00:	84000715 	stw	r16,28(r16)
   23d04:	80800b15 	stw	r2,44(r16)
   23d08:	8c40400c 	andi	r17,r17,256
   23d0c:	88000d1e 	bne	r17,zero,23d44 <_fopen_r+0xd8>
   23d10:	8005883a 	mov	r2,r16
   23d14:	dfc00517 	ldw	ra,20(sp)
   23d18:	dcc00417 	ldw	r19,16(sp)
   23d1c:	dc800317 	ldw	r18,12(sp)
   23d20:	dc400217 	ldw	r17,8(sp)
   23d24:	dc000117 	ldw	r16,4(sp)
   23d28:	dec00604 	addi	sp,sp,24
   23d2c:	f800283a 	ret
   23d30:	00299780 	call	29978 <__sfp_lock_acquire>
   23d34:	8000030d 	sth	zero,12(r16)
   23d38:	002997c0 	call	2997c <__sfp_lock_release>
   23d3c:	0005883a 	mov	r2,zero
   23d40:	003ff406 	br	23d14 <__alt_data_end+0xfffe3d14>
   23d44:	01c00084 	movi	r7,2
   23d48:	000d883a 	mov	r6,zero
   23d4c:	800b883a 	mov	r5,r16
   23d50:	9009883a 	mov	r4,r18
   23d54:	0023dc40 	call	23dc4 <_fseek_r>
   23d58:	8005883a 	mov	r2,r16
   23d5c:	003fed06 	br	23d14 <__alt_data_end+0xfffe3d14>

00023d60 <fopen>:
   23d60:	008000f4 	movhi	r2,3
   23d64:	109eb604 	addi	r2,r2,31448
   23d68:	280d883a 	mov	r6,r5
   23d6c:	200b883a 	mov	r5,r4
   23d70:	11000017 	ldw	r4,0(r2)
   23d74:	0023c6c1 	jmpi	23c6c <_fopen_r>

00023d78 <_fprintf_r>:
   23d78:	defffe04 	addi	sp,sp,-8
   23d7c:	2809883a 	mov	r4,r5
   23d80:	300b883a 	mov	r5,r6
   23d84:	dfc00015 	stw	ra,0(sp)
   23d88:	d9c00115 	stw	r7,4(sp)
   23d8c:	d9800104 	addi	r6,sp,4
   23d90:	00278080 	call	27808 <__vfprintf_internal>
   23d94:	dfc00017 	ldw	ra,0(sp)
   23d98:	dec00204 	addi	sp,sp,8
   23d9c:	f800283a 	ret

00023da0 <fprintf>:
   23da0:	defffd04 	addi	sp,sp,-12
   23da4:	dfc00015 	stw	ra,0(sp)
   23da8:	d9800115 	stw	r6,4(sp)
   23dac:	d9c00215 	stw	r7,8(sp)
   23db0:	d9800104 	addi	r6,sp,4
   23db4:	00278080 	call	27808 <__vfprintf_internal>
   23db8:	dfc00017 	ldw	ra,0(sp)
   23dbc:	dec00304 	addi	sp,sp,12
   23dc0:	f800283a 	ret

00023dc4 <_fseek_r>:
   23dc4:	0023de41 	jmpi	23de4 <_fseeko_r>

00023dc8 <fseek>:
   23dc8:	008000f4 	movhi	r2,3
   23dcc:	109eb604 	addi	r2,r2,31448
   23dd0:	300f883a 	mov	r7,r6
   23dd4:	280d883a 	mov	r6,r5
   23dd8:	200b883a 	mov	r5,r4
   23ddc:	11000017 	ldw	r4,0(r2)
   23de0:	0023de41 	jmpi	23de4 <_fseeko_r>

00023de4 <_fseeko_r>:
   23de4:	deffe804 	addi	sp,sp,-96
   23de8:	dd401415 	stw	r21,80(sp)
   23dec:	dc801115 	stw	r18,68(sp)
   23df0:	dc401015 	stw	r17,64(sp)
   23df4:	dc000f15 	stw	r16,60(sp)
   23df8:	dfc01715 	stw	ra,92(sp)
   23dfc:	ddc01615 	stw	r23,88(sp)
   23e00:	dd801515 	stw	r22,84(sp)
   23e04:	dd001315 	stw	r20,76(sp)
   23e08:	dcc01215 	stw	r19,72(sp)
   23e0c:	2023883a 	mov	r17,r4
   23e10:	2821883a 	mov	r16,r5
   23e14:	302b883a 	mov	r21,r6
   23e18:	3825883a 	mov	r18,r7
   23e1c:	20000226 	beq	r4,zero,23e28 <_fseeko_r+0x44>
   23e20:	20800e17 	ldw	r2,56(r4)
   23e24:	10005a26 	beq	r2,zero,23f90 <_fseeko_r+0x1ac>
   23e28:	8080030b 	ldhu	r2,12(r16)
   23e2c:	00c04204 	movi	r3,264
   23e30:	1080420c 	andi	r2,r2,264
   23e34:	10c05b26 	beq	r2,r3,23fa4 <_fseeko_r+0x1c0>
   23e38:	85000a17 	ldw	r20,40(r16)
   23e3c:	a000f626 	beq	r20,zero,24218 <_fseeko_r+0x434>
   23e40:	00800044 	movi	r2,1
   23e44:	90803e26 	beq	r18,r2,23f40 <_fseeko_r+0x15c>
   23e48:	00800084 	movi	r2,2
   23e4c:	90801026 	beq	r18,r2,23e90 <_fseeko_r+0xac>
   23e50:	90000f26 	beq	r18,zero,23e90 <_fseeko_r+0xac>
   23e54:	00800584 	movi	r2,22
   23e58:	88800015 	stw	r2,0(r17)
   23e5c:	04ffffc4 	movi	r19,-1
   23e60:	9805883a 	mov	r2,r19
   23e64:	dfc01717 	ldw	ra,92(sp)
   23e68:	ddc01617 	ldw	r23,88(sp)
   23e6c:	dd801517 	ldw	r22,84(sp)
   23e70:	dd401417 	ldw	r21,80(sp)
   23e74:	dd001317 	ldw	r20,76(sp)
   23e78:	dcc01217 	ldw	r19,72(sp)
   23e7c:	dc801117 	ldw	r18,68(sp)
   23e80:	dc401017 	ldw	r17,64(sp)
   23e84:	dc000f17 	ldw	r16,60(sp)
   23e88:	dec01804 	addi	sp,sp,96
   23e8c:	f800283a 	ret
   23e90:	80800417 	ldw	r2,16(r16)
   23e94:	002f883a 	mov	r23,zero
   23e98:	0027883a 	mov	r19,zero
   23e9c:	1000cb26 	beq	r2,zero,241cc <_fseeko_r+0x3e8>
   23ea0:	8080030b 	ldhu	r2,12(r16)
   23ea4:	10c2068c 	andi	r3,r2,2074
   23ea8:	1800071e 	bne	r3,zero,23ec8 <_fseeko_r+0xe4>
   23eac:	10c1000c 	andi	r3,r2,1024
   23eb0:	1800451e 	bne	r3,zero,23fc8 <_fseeko_r+0x1e4>
   23eb4:	00c000b4 	movhi	r3,2
   23eb8:	18d54504 	addi	r3,r3,21780
   23ebc:	a0c0b726 	beq	r20,r3,2419c <_fseeko_r+0x3b8>
   23ec0:	10820014 	ori	r2,r2,2048
   23ec4:	8080030d 	sth	r2,12(r16)
   23ec8:	800b883a 	mov	r5,r16
   23ecc:	8809883a 	mov	r4,r17
   23ed0:	002958c0 	call	2958c <_fflush_r>
   23ed4:	1027883a 	mov	r19,r2
   23ed8:	103fe01e 	bne	r2,zero,23e5c <__alt_data_end+0xfffe3e5c>
   23edc:	81400717 	ldw	r5,28(r16)
   23ee0:	900f883a 	mov	r7,r18
   23ee4:	a80d883a 	mov	r6,r21
   23ee8:	8809883a 	mov	r4,r17
   23eec:	a03ee83a 	callr	r20
   23ef0:	00ffffc4 	movi	r3,-1
   23ef4:	10ffd926 	beq	r2,r3,23e5c <__alt_data_end+0xfffe3e5c>
   23ef8:	81400c17 	ldw	r5,48(r16)
   23efc:	28000526 	beq	r5,zero,23f14 <_fseeko_r+0x130>
   23f00:	80801004 	addi	r2,r16,64
   23f04:	28800226 	beq	r5,r2,23f10 <_fseeko_r+0x12c>
   23f08:	8809883a 	mov	r4,r17
   23f0c:	0029b880 	call	29b88 <_free_r>
   23f10:	80000c15 	stw	zero,48(r16)
   23f14:	8080030b 	ldhu	r2,12(r16)
   23f18:	80c00417 	ldw	r3,16(r16)
   23f1c:	80000115 	stw	zero,4(r16)
   23f20:	10bdf7cc 	andi	r2,r2,63455
   23f24:	80c00015 	stw	r3,0(r16)
   23f28:	8080030d 	sth	r2,12(r16)
   23f2c:	01800204 	movi	r6,8
   23f30:	000b883a 	mov	r5,zero
   23f34:	81001704 	addi	r4,r16,92
   23f38:	0024e880 	call	24e88 <memset>
   23f3c:	003fc806 	br	23e60 <__alt_data_end+0xfffe3e60>
   23f40:	800b883a 	mov	r5,r16
   23f44:	8809883a 	mov	r4,r17
   23f48:	002958c0 	call	2958c <_fflush_r>
   23f4c:	8080030b 	ldhu	r2,12(r16)
   23f50:	10c4000c 	andi	r3,r2,4096
   23f54:	18008726 	beq	r3,zero,24174 <_fseeko_r+0x390>
   23f58:	84c01417 	ldw	r19,80(r16)
   23f5c:	10c0010c 	andi	r3,r2,4
   23f60:	1800431e 	bne	r3,zero,24070 <_fseeko_r+0x28c>
   23f64:	1080020c 	andi	r2,r2,8
   23f68:	10008026 	beq	r2,zero,2416c <_fseeko_r+0x388>
   23f6c:	80c00017 	ldw	r3,0(r16)
   23f70:	80800417 	ldw	r2,16(r16)
   23f74:	18000226 	beq	r3,zero,23f80 <_fseeko_r+0x19c>
   23f78:	1887c83a 	sub	r3,r3,r2
   23f7c:	98e7883a 	add	r19,r19,r3
   23f80:	aceb883a 	add	r21,r21,r19
   23f84:	05c00044 	movi	r23,1
   23f88:	0025883a 	mov	r18,zero
   23f8c:	003fc306 	br	23e9c <__alt_data_end+0xfffe3e9c>
   23f90:	00299680 	call	29968 <__sinit>
   23f94:	8080030b 	ldhu	r2,12(r16)
   23f98:	00c04204 	movi	r3,264
   23f9c:	1080420c 	andi	r2,r2,264
   23fa0:	10ffa51e 	bne	r2,r3,23e38 <__alt_data_end+0xfffe3e38>
   23fa4:	800b883a 	mov	r5,r16
   23fa8:	8809883a 	mov	r4,r17
   23fac:	002958c0 	call	2958c <_fflush_r>
   23fb0:	003fa106 	br	23e38 <__alt_data_end+0xfffe3e38>
   23fb4:	8080030b 	ldhu	r2,12(r16)
   23fb8:	00c10004 	movi	r3,1024
   23fbc:	80c01315 	stw	r3,76(r16)
   23fc0:	10c4b03a 	or	r2,r2,r3
   23fc4:	8080030d 	sth	r2,12(r16)
   23fc8:	9000311e 	bne	r18,zero,24090 <_fseeko_r+0x2ac>
   23fcc:	a82d883a 	mov	r22,r21
   23fd0:	b800371e 	bne	r23,zero,240b0 <_fseeko_r+0x2cc>
   23fd4:	8080030b 	ldhu	r2,12(r16)
   23fd8:	1084000c 	andi	r2,r2,4096
   23fdc:	10007f26 	beq	r2,zero,241dc <_fseeko_r+0x3f8>
   23fe0:	80801417 	ldw	r2,80(r16)
   23fe4:	81800117 	ldw	r6,4(r16)
   23fe8:	81400c17 	ldw	r5,48(r16)
   23fec:	11a7c83a 	sub	r19,r2,r6
   23ff0:	28008226 	beq	r5,zero,241fc <_fseeko_r+0x418>
   23ff4:	81c00f17 	ldw	r7,60(r16)
   23ff8:	99e7c83a 	sub	r19,r19,r7
   23ffc:	81000e17 	ldw	r4,56(r16)
   24000:	80800417 	ldw	r2,16(r16)
   24004:	99a7883a 	add	r19,r19,r6
   24008:	2087c83a 	sub	r3,r4,r2
   2400c:	98e7c83a 	sub	r19,r19,r3
   24010:	38c7883a 	add	r3,r7,r3
   24014:	b4c02b16 	blt	r22,r19,240c4 <_fseeko_r+0x2e0>
   24018:	98c9883a 	add	r4,r19,r3
   2401c:	b100292e 	bgeu	r22,r4,240c4 <_fseeko_r+0x2e0>
   24020:	b4e7c83a 	sub	r19,r22,r19
   24024:	14c5883a 	add	r2,r2,r19
   24028:	1ce7c83a 	sub	r19,r3,r19
   2402c:	80800015 	stw	r2,0(r16)
   24030:	84c00115 	stw	r19,4(r16)
   24034:	28000526 	beq	r5,zero,2404c <_fseeko_r+0x268>
   24038:	80801004 	addi	r2,r16,64
   2403c:	28800226 	beq	r5,r2,24048 <_fseeko_r+0x264>
   24040:	8809883a 	mov	r4,r17
   24044:	0029b880 	call	29b88 <_free_r>
   24048:	80000c15 	stw	zero,48(r16)
   2404c:	8080030b 	ldhu	r2,12(r16)
   24050:	01800204 	movi	r6,8
   24054:	000b883a 	mov	r5,zero
   24058:	10bff7cc 	andi	r2,r2,65503
   2405c:	8080030d 	sth	r2,12(r16)
   24060:	81001704 	addi	r4,r16,92
   24064:	0024e880 	call	24e88 <memset>
   24068:	0027883a 	mov	r19,zero
   2406c:	003f7c06 	br	23e60 <__alt_data_end+0xfffe3e60>
   24070:	80c00117 	ldw	r3,4(r16)
   24074:	80800c17 	ldw	r2,48(r16)
   24078:	98e7c83a 	sub	r19,r19,r3
   2407c:	10003b26 	beq	r2,zero,2416c <_fseeko_r+0x388>
   24080:	80c00f17 	ldw	r3,60(r16)
   24084:	80800417 	ldw	r2,16(r16)
   24088:	98e7c83a 	sub	r19,r19,r3
   2408c:	003fbc06 	br	23f80 <__alt_data_end+0xfffe3f80>
   24090:	8140038f 	ldh	r5,14(r16)
   24094:	d80d883a 	mov	r6,sp
   24098:	8809883a 	mov	r4,r17
   2409c:	00242440 	call	24244 <_fstat_r>
   240a0:	103f891e 	bne	r2,zero,23ec8 <__alt_data_end+0xfffe3ec8>
   240a4:	dd800417 	ldw	r22,16(sp)
   240a8:	adad883a 	add	r22,r21,r22
   240ac:	b83fc926 	beq	r23,zero,23fd4 <__alt_data_end+0xfffe3fd4>
   240b0:	81400c17 	ldw	r5,48(r16)
   240b4:	81800117 	ldw	r6,4(r16)
   240b8:	28005026 	beq	r5,zero,241fc <_fseeko_r+0x418>
   240bc:	81c00f17 	ldw	r7,60(r16)
   240c0:	003fce06 	br	23ffc <__alt_data_end+0xfffe3ffc>
   240c4:	84c01317 	ldw	r19,76(r16)
   240c8:	81400717 	ldw	r5,28(r16)
   240cc:	000f883a 	mov	r7,zero
   240d0:	04e7c83a 	sub	r19,zero,r19
   240d4:	9da6703a 	and	r19,r19,r22
   240d8:	980d883a 	mov	r6,r19
   240dc:	8809883a 	mov	r4,r17
   240e0:	a03ee83a 	callr	r20
   240e4:	00ffffc4 	movi	r3,-1
   240e8:	10ff7726 	beq	r2,r3,23ec8 <__alt_data_end+0xfffe3ec8>
   240ec:	80800417 	ldw	r2,16(r16)
   240f0:	81400c17 	ldw	r5,48(r16)
   240f4:	80000115 	stw	zero,4(r16)
   240f8:	80800015 	stw	r2,0(r16)
   240fc:	28000526 	beq	r5,zero,24114 <_fseeko_r+0x330>
   24100:	80801004 	addi	r2,r16,64
   24104:	28800226 	beq	r5,r2,24110 <_fseeko_r+0x32c>
   24108:	8809883a 	mov	r4,r17
   2410c:	0029b880 	call	29b88 <_free_r>
   24110:	80000c15 	stw	zero,48(r16)
   24114:	8080030b 	ldhu	r2,12(r16)
   24118:	b4e7c83a 	sub	r19,r22,r19
   2411c:	10bff7cc 	andi	r2,r2,65503
   24120:	8080030d 	sth	r2,12(r16)
   24124:	98000b26 	beq	r19,zero,24154 <_fseeko_r+0x370>
   24128:	800b883a 	mov	r5,r16
   2412c:	8809883a 	mov	r4,r17
   24130:	002518c0 	call	2518c <__srefill_r>
   24134:	103f641e 	bne	r2,zero,23ec8 <__alt_data_end+0xfffe3ec8>
   24138:	80800117 	ldw	r2,4(r16)
   2413c:	14ff6236 	bltu	r2,r19,23ec8 <__alt_data_end+0xfffe3ec8>
   24140:	80c00017 	ldw	r3,0(r16)
   24144:	14c5c83a 	sub	r2,r2,r19
   24148:	80800115 	stw	r2,4(r16)
   2414c:	1ce7883a 	add	r19,r3,r19
   24150:	84c00015 	stw	r19,0(r16)
   24154:	01800204 	movi	r6,8
   24158:	000b883a 	mov	r5,zero
   2415c:	81001704 	addi	r4,r16,92
   24160:	0024e880 	call	24e88 <memset>
   24164:	0027883a 	mov	r19,zero
   24168:	003f3d06 	br	23e60 <__alt_data_end+0xfffe3e60>
   2416c:	80800417 	ldw	r2,16(r16)
   24170:	003f8306 	br	23f80 <__alt_data_end+0xfffe3f80>
   24174:	81400717 	ldw	r5,28(r16)
   24178:	900f883a 	mov	r7,r18
   2417c:	000d883a 	mov	r6,zero
   24180:	8809883a 	mov	r4,r17
   24184:	a03ee83a 	callr	r20
   24188:	1027883a 	mov	r19,r2
   2418c:	00bfffc4 	movi	r2,-1
   24190:	98bf3226 	beq	r19,r2,23e5c <__alt_data_end+0xfffe3e5c>
   24194:	8080030b 	ldhu	r2,12(r16)
   24198:	003f7006 	br	23f5c <__alt_data_end+0xfffe3f5c>
   2419c:	8140038f 	ldh	r5,14(r16)
   241a0:	283f4716 	blt	r5,zero,23ec0 <__alt_data_end+0xfffe3ec0>
   241a4:	d80d883a 	mov	r6,sp
   241a8:	8809883a 	mov	r4,r17
   241ac:	00242440 	call	24244 <_fstat_r>
   241b0:	1000041e 	bne	r2,zero,241c4 <_fseeko_r+0x3e0>
   241b4:	d8800117 	ldw	r2,4(sp)
   241b8:	00e00014 	movui	r3,32768
   241bc:	10bc000c 	andi	r2,r2,61440
   241c0:	10ff7c26 	beq	r2,r3,23fb4 <__alt_data_end+0xfffe3fb4>
   241c4:	8080030b 	ldhu	r2,12(r16)
   241c8:	003f3d06 	br	23ec0 <__alt_data_end+0xfffe3ec0>
   241cc:	800b883a 	mov	r5,r16
   241d0:	8809883a 	mov	r4,r17
   241d4:	00244980 	call	24498 <__smakebuf_r>
   241d8:	003f3106 	br	23ea0 <__alt_data_end+0xfffe3ea0>
   241dc:	81400717 	ldw	r5,28(r16)
   241e0:	01c00044 	movi	r7,1
   241e4:	000d883a 	mov	r6,zero
   241e8:	8809883a 	mov	r4,r17
   241ec:	a03ee83a 	callr	r20
   241f0:	00ffffc4 	movi	r3,-1
   241f4:	10ff7b1e 	bne	r2,r3,23fe4 <__alt_data_end+0xfffe3fe4>
   241f8:	003f3306 	br	23ec8 <__alt_data_end+0xfffe3ec8>
   241fc:	80c00017 	ldw	r3,0(r16)
   24200:	80800417 	ldw	r2,16(r16)
   24204:	000b883a 	mov	r5,zero
   24208:	1887c83a 	sub	r3,r3,r2
   2420c:	98e7c83a 	sub	r19,r19,r3
   24210:	30c7883a 	add	r3,r6,r3
   24214:	003f7f06 	br	24014 <__alt_data_end+0xfffe4014>
   24218:	00800744 	movi	r2,29
   2421c:	88800015 	stw	r2,0(r17)
   24220:	04ffffc4 	movi	r19,-1
   24224:	003f0e06 	br	23e60 <__alt_data_end+0xfffe3e60>

00024228 <fseeko>:
   24228:	008000f4 	movhi	r2,3
   2422c:	109eb604 	addi	r2,r2,31448
   24230:	300f883a 	mov	r7,r6
   24234:	280d883a 	mov	r6,r5
   24238:	200b883a 	mov	r5,r4
   2423c:	11000017 	ldw	r4,0(r2)
   24240:	0023de41 	jmpi	23de4 <_fseeko_r>

00024244 <_fstat_r>:
   24244:	defffd04 	addi	sp,sp,-12
   24248:	2805883a 	mov	r2,r5
   2424c:	dc000015 	stw	r16,0(sp)
   24250:	04000134 	movhi	r16,4
   24254:	dc400115 	stw	r17,4(sp)
   24258:	8427be04 	addi	r16,r16,-24840
   2425c:	2023883a 	mov	r17,r4
   24260:	300b883a 	mov	r5,r6
   24264:	1009883a 	mov	r4,r2
   24268:	dfc00215 	stw	ra,8(sp)
   2426c:	80000015 	stw	zero,0(r16)
   24270:	00313e80 	call	313e8 <fstat>
   24274:	00ffffc4 	movi	r3,-1
   24278:	10c00526 	beq	r2,r3,24290 <_fstat_r+0x4c>
   2427c:	dfc00217 	ldw	ra,8(sp)
   24280:	dc400117 	ldw	r17,4(sp)
   24284:	dc000017 	ldw	r16,0(sp)
   24288:	dec00304 	addi	sp,sp,12
   2428c:	f800283a 	ret
   24290:	80c00017 	ldw	r3,0(r16)
   24294:	183ff926 	beq	r3,zero,2427c <__alt_data_end+0xfffe427c>
   24298:	88c00015 	stw	r3,0(r17)
   2429c:	003ff706 	br	2427c <__alt_data_end+0xfffe427c>

000242a0 <_fwrite_r>:
   242a0:	defff504 	addi	sp,sp,-44
   242a4:	dc800815 	stw	r18,32(sp)
   242a8:	39a5383a 	mul	r18,r7,r6
   242ac:	d8800304 	addi	r2,sp,12
   242b0:	d8800015 	stw	r2,0(sp)
   242b4:	00800044 	movi	r2,1
   242b8:	dcc00915 	stw	r19,36(sp)
   242bc:	dc400715 	stw	r17,28(sp)
   242c0:	dc000615 	stw	r16,24(sp)
   242c4:	d9400315 	stw	r5,12(sp)
   242c8:	dfc00a15 	stw	ra,40(sp)
   242cc:	dc800415 	stw	r18,16(sp)
   242d0:	dc800215 	stw	r18,8(sp)
   242d4:	d8800115 	stw	r2,4(sp)
   242d8:	3027883a 	mov	r19,r6
   242dc:	3821883a 	mov	r16,r7
   242e0:	2023883a 	mov	r17,r4
   242e4:	d9400b17 	ldw	r5,44(sp)
   242e8:	20000226 	beq	r4,zero,242f4 <_fwrite_r+0x54>
   242ec:	20800e17 	ldw	r2,56(r4)
   242f0:	10001a26 	beq	r2,zero,2435c <_fwrite_r+0xbc>
   242f4:	2880030b 	ldhu	r2,12(r5)
   242f8:	10c8000c 	andi	r3,r2,8192
   242fc:	1800061e 	bne	r3,zero,24318 <_fwrite_r+0x78>
   24300:	29001917 	ldw	r4,100(r5)
   24304:	00f7ffc4 	movi	r3,-8193
   24308:	10880014 	ori	r2,r2,8192
   2430c:	20c6703a 	and	r3,r4,r3
   24310:	2880030d 	sth	r2,12(r5)
   24314:	28c01915 	stw	r3,100(r5)
   24318:	d80d883a 	mov	r6,sp
   2431c:	8809883a 	mov	r4,r17
   24320:	0029e980 	call	29e98 <__sfvwrite_r>
   24324:	10000b26 	beq	r2,zero,24354 <_fwrite_r+0xb4>
   24328:	d9000217 	ldw	r4,8(sp)
   2432c:	980b883a 	mov	r5,r19
   24330:	9109c83a 	sub	r4,r18,r4
   24334:	0023bb00 	call	23bb0 <__udivsi3>
   24338:	dfc00a17 	ldw	ra,40(sp)
   2433c:	dcc00917 	ldw	r19,36(sp)
   24340:	dc800817 	ldw	r18,32(sp)
   24344:	dc400717 	ldw	r17,28(sp)
   24348:	dc000617 	ldw	r16,24(sp)
   2434c:	dec00b04 	addi	sp,sp,44
   24350:	f800283a 	ret
   24354:	8005883a 	mov	r2,r16
   24358:	003ff706 	br	24338 <__alt_data_end+0xfffe4338>
   2435c:	d9400515 	stw	r5,20(sp)
   24360:	00299680 	call	29968 <__sinit>
   24364:	d9400517 	ldw	r5,20(sp)
   24368:	003fe206 	br	242f4 <__alt_data_end+0xfffe42f4>

0002436c <fwrite>:
   2436c:	defffe04 	addi	sp,sp,-8
   24370:	008000f4 	movhi	r2,3
   24374:	d9c00015 	stw	r7,0(sp)
   24378:	109eb604 	addi	r2,r2,31448
   2437c:	300f883a 	mov	r7,r6
   24380:	280d883a 	mov	r6,r5
   24384:	200b883a 	mov	r5,r4
   24388:	11000017 	ldw	r4,0(r2)
   2438c:	dfc00115 	stw	ra,4(sp)
   24390:	00242a00 	call	242a0 <_fwrite_r>
   24394:	dfc00117 	ldw	ra,4(sp)
   24398:	dec00204 	addi	sp,sp,8
   2439c:	f800283a 	ret

000243a0 <_getc_r>:
   243a0:	defffd04 	addi	sp,sp,-12
   243a4:	dc000115 	stw	r16,4(sp)
   243a8:	dfc00215 	stw	ra,8(sp)
   243ac:	2021883a 	mov	r16,r4
   243b0:	20000226 	beq	r4,zero,243bc <_getc_r+0x1c>
   243b4:	20800e17 	ldw	r2,56(r4)
   243b8:	10000c26 	beq	r2,zero,243ec <_getc_r+0x4c>
   243bc:	28800117 	ldw	r2,4(r5)
   243c0:	10bfffc4 	addi	r2,r2,-1
   243c4:	28800115 	stw	r2,4(r5)
   243c8:	10000c16 	blt	r2,zero,243fc <_getc_r+0x5c>
   243cc:	28800017 	ldw	r2,0(r5)
   243d0:	10c00044 	addi	r3,r2,1
   243d4:	28c00015 	stw	r3,0(r5)
   243d8:	10800003 	ldbu	r2,0(r2)
   243dc:	dfc00217 	ldw	ra,8(sp)
   243e0:	dc000117 	ldw	r16,4(sp)
   243e4:	dec00304 	addi	sp,sp,12
   243e8:	f800283a 	ret
   243ec:	d9400015 	stw	r5,0(sp)
   243f0:	00299680 	call	29968 <__sinit>
   243f4:	d9400017 	ldw	r5,0(sp)
   243f8:	003ff006 	br	243bc <__alt_data_end+0xfffe43bc>
   243fc:	8009883a 	mov	r4,r16
   24400:	dfc00217 	ldw	ra,8(sp)
   24404:	dc000117 	ldw	r16,4(sp)
   24408:	dec00304 	addi	sp,sp,12
   2440c:	00253601 	jmpi	25360 <__srget_r>

00024410 <getc>:
   24410:	008000f4 	movhi	r2,3
   24414:	defffd04 	addi	sp,sp,-12
   24418:	109eb604 	addi	r2,r2,31448
   2441c:	dc400115 	stw	r17,4(sp)
   24420:	14400017 	ldw	r17,0(r2)
   24424:	dc000015 	stw	r16,0(sp)
   24428:	dfc00215 	stw	ra,8(sp)
   2442c:	2021883a 	mov	r16,r4
   24430:	88000226 	beq	r17,zero,2443c <getc+0x2c>
   24434:	88800e17 	ldw	r2,56(r17)
   24438:	10000d26 	beq	r2,zero,24470 <getc+0x60>
   2443c:	80800117 	ldw	r2,4(r16)
   24440:	10bfffc4 	addi	r2,r2,-1
   24444:	80800115 	stw	r2,4(r16)
   24448:	10000c16 	blt	r2,zero,2447c <getc+0x6c>
   2444c:	80800017 	ldw	r2,0(r16)
   24450:	10c00044 	addi	r3,r2,1
   24454:	80c00015 	stw	r3,0(r16)
   24458:	10800003 	ldbu	r2,0(r2)
   2445c:	dfc00217 	ldw	ra,8(sp)
   24460:	dc400117 	ldw	r17,4(sp)
   24464:	dc000017 	ldw	r16,0(sp)
   24468:	dec00304 	addi	sp,sp,12
   2446c:	f800283a 	ret
   24470:	8809883a 	mov	r4,r17
   24474:	00299680 	call	29968 <__sinit>
   24478:	003ff006 	br	2443c <__alt_data_end+0xfffe443c>
   2447c:	800b883a 	mov	r5,r16
   24480:	8809883a 	mov	r4,r17
   24484:	dfc00217 	ldw	ra,8(sp)
   24488:	dc400117 	ldw	r17,4(sp)
   2448c:	dc000017 	ldw	r16,0(sp)
   24490:	dec00304 	addi	sp,sp,12
   24494:	00253601 	jmpi	25360 <__srget_r>

00024498 <__smakebuf_r>:
   24498:	2880030b 	ldhu	r2,12(r5)
   2449c:	10c0008c 	andi	r3,r2,2
   244a0:	1800411e 	bne	r3,zero,245a8 <__smakebuf_r+0x110>
   244a4:	deffec04 	addi	sp,sp,-80
   244a8:	dc000f15 	stw	r16,60(sp)
   244ac:	2821883a 	mov	r16,r5
   244b0:	2940038f 	ldh	r5,14(r5)
   244b4:	dc401015 	stw	r17,64(sp)
   244b8:	dfc01315 	stw	ra,76(sp)
   244bc:	dcc01215 	stw	r19,72(sp)
   244c0:	dc801115 	stw	r18,68(sp)
   244c4:	2023883a 	mov	r17,r4
   244c8:	28001c16 	blt	r5,zero,2453c <__smakebuf_r+0xa4>
   244cc:	d80d883a 	mov	r6,sp
   244d0:	00242440 	call	24244 <_fstat_r>
   244d4:	10001816 	blt	r2,zero,24538 <__smakebuf_r+0xa0>
   244d8:	d8800117 	ldw	r2,4(sp)
   244dc:	00e00014 	movui	r3,32768
   244e0:	10bc000c 	andi	r2,r2,61440
   244e4:	14c80020 	cmpeqi	r19,r2,8192
   244e8:	10c03726 	beq	r2,r3,245c8 <__smakebuf_r+0x130>
   244ec:	80c0030b 	ldhu	r3,12(r16)
   244f0:	18c20014 	ori	r3,r3,2048
   244f4:	80c0030d 	sth	r3,12(r16)
   244f8:	00c80004 	movi	r3,8192
   244fc:	10c0521e 	bne	r2,r3,24648 <__smakebuf_r+0x1b0>
   24500:	8140038f 	ldh	r5,14(r16)
   24504:	8809883a 	mov	r4,r17
   24508:	002a4dc0 	call	2a4dc <_isatty_r>
   2450c:	10004c26 	beq	r2,zero,24640 <__smakebuf_r+0x1a8>
   24510:	8080030b 	ldhu	r2,12(r16)
   24514:	80c010c4 	addi	r3,r16,67
   24518:	80c00015 	stw	r3,0(r16)
   2451c:	10800054 	ori	r2,r2,1
   24520:	8080030d 	sth	r2,12(r16)
   24524:	00800044 	movi	r2,1
   24528:	80c00415 	stw	r3,16(r16)
   2452c:	80800515 	stw	r2,20(r16)
   24530:	04810004 	movi	r18,1024
   24534:	00000706 	br	24554 <__smakebuf_r+0xbc>
   24538:	8080030b 	ldhu	r2,12(r16)
   2453c:	10c0200c 	andi	r3,r2,128
   24540:	18001f1e 	bne	r3,zero,245c0 <__smakebuf_r+0x128>
   24544:	04810004 	movi	r18,1024
   24548:	10820014 	ori	r2,r2,2048
   2454c:	8080030d 	sth	r2,12(r16)
   24550:	0027883a 	mov	r19,zero
   24554:	900b883a 	mov	r5,r18
   24558:	8809883a 	mov	r4,r17
   2455c:	002467c0 	call	2467c <_malloc_r>
   24560:	10002c26 	beq	r2,zero,24614 <__smakebuf_r+0x17c>
   24564:	80c0030b 	ldhu	r3,12(r16)
   24568:	010000f4 	movhi	r4,3
   2456c:	21258804 	addi	r4,r4,-27104
   24570:	89000f15 	stw	r4,60(r17)
   24574:	18c02014 	ori	r3,r3,128
   24578:	80c0030d 	sth	r3,12(r16)
   2457c:	80800015 	stw	r2,0(r16)
   24580:	80800415 	stw	r2,16(r16)
   24584:	84800515 	stw	r18,20(r16)
   24588:	98001a1e 	bne	r19,zero,245f4 <__smakebuf_r+0x15c>
   2458c:	dfc01317 	ldw	ra,76(sp)
   24590:	dcc01217 	ldw	r19,72(sp)
   24594:	dc801117 	ldw	r18,68(sp)
   24598:	dc401017 	ldw	r17,64(sp)
   2459c:	dc000f17 	ldw	r16,60(sp)
   245a0:	dec01404 	addi	sp,sp,80
   245a4:	f800283a 	ret
   245a8:	288010c4 	addi	r2,r5,67
   245ac:	28800015 	stw	r2,0(r5)
   245b0:	28800415 	stw	r2,16(r5)
   245b4:	00800044 	movi	r2,1
   245b8:	28800515 	stw	r2,20(r5)
   245bc:	f800283a 	ret
   245c0:	04801004 	movi	r18,64
   245c4:	003fe006 	br	24548 <__alt_data_end+0xfffe4548>
   245c8:	81000a17 	ldw	r4,40(r16)
   245cc:	00c000b4 	movhi	r3,2
   245d0:	18d54504 	addi	r3,r3,21780
   245d4:	20ffc51e 	bne	r4,r3,244ec <__alt_data_end+0xfffe44ec>
   245d8:	8080030b 	ldhu	r2,12(r16)
   245dc:	04810004 	movi	r18,1024
   245e0:	84801315 	stw	r18,76(r16)
   245e4:	1484b03a 	or	r2,r2,r18
   245e8:	8080030d 	sth	r2,12(r16)
   245ec:	0027883a 	mov	r19,zero
   245f0:	003fd806 	br	24554 <__alt_data_end+0xfffe4554>
   245f4:	8140038f 	ldh	r5,14(r16)
   245f8:	8809883a 	mov	r4,r17
   245fc:	002a4dc0 	call	2a4dc <_isatty_r>
   24600:	103fe226 	beq	r2,zero,2458c <__alt_data_end+0xfffe458c>
   24604:	8080030b 	ldhu	r2,12(r16)
   24608:	10800054 	ori	r2,r2,1
   2460c:	8080030d 	sth	r2,12(r16)
   24610:	003fde06 	br	2458c <__alt_data_end+0xfffe458c>
   24614:	8080030b 	ldhu	r2,12(r16)
   24618:	10c0800c 	andi	r3,r2,512
   2461c:	183fdb1e 	bne	r3,zero,2458c <__alt_data_end+0xfffe458c>
   24620:	10800094 	ori	r2,r2,2
   24624:	80c010c4 	addi	r3,r16,67
   24628:	8080030d 	sth	r2,12(r16)
   2462c:	00800044 	movi	r2,1
   24630:	80c00015 	stw	r3,0(r16)
   24634:	80c00415 	stw	r3,16(r16)
   24638:	80800515 	stw	r2,20(r16)
   2463c:	003fd306 	br	2458c <__alt_data_end+0xfffe458c>
   24640:	04810004 	movi	r18,1024
   24644:	003fc306 	br	24554 <__alt_data_end+0xfffe4554>
   24648:	0027883a 	mov	r19,zero
   2464c:	04810004 	movi	r18,1024
   24650:	003fc006 	br	24554 <__alt_data_end+0xfffe4554>

00024654 <malloc>:
   24654:	008000f4 	movhi	r2,3
   24658:	109eb604 	addi	r2,r2,31448
   2465c:	200b883a 	mov	r5,r4
   24660:	11000017 	ldw	r4,0(r2)
   24664:	002467c1 	jmpi	2467c <_malloc_r>

00024668 <free>:
   24668:	008000f4 	movhi	r2,3
   2466c:	109eb604 	addi	r2,r2,31448
   24670:	200b883a 	mov	r5,r4
   24674:	11000017 	ldw	r4,0(r2)
   24678:	0029b881 	jmpi	29b88 <_free_r>

0002467c <_malloc_r>:
   2467c:	defff504 	addi	sp,sp,-44
   24680:	dc800315 	stw	r18,12(sp)
   24684:	dfc00a15 	stw	ra,40(sp)
   24688:	df000915 	stw	fp,36(sp)
   2468c:	ddc00815 	stw	r23,32(sp)
   24690:	dd800715 	stw	r22,28(sp)
   24694:	dd400615 	stw	r21,24(sp)
   24698:	dd000515 	stw	r20,20(sp)
   2469c:	dcc00415 	stw	r19,16(sp)
   246a0:	dc400215 	stw	r17,8(sp)
   246a4:	dc000115 	stw	r16,4(sp)
